
./rtarget:     file format elf64-x86-64


Disassembly of section .init:

0000000000401000 <_init>:
  401000:	f3 0f 1e fa          	endbr64 
  401004:	48 83 ec 08          	sub    $0x8,%rsp
  401008:	48 8b 05 e9 5f 00 00 	mov    0x5fe9(%rip),%rax        # 406ff8 <__gmon_start__@Base>
  40100f:	48 85 c0             	test   %rax,%rax
  401012:	74 02                	je     401016 <_init+0x16>
  401014:	ff d0                	callq  *%rax
  401016:	48 83 c4 08          	add    $0x8,%rsp
  40101a:	c3                   	retq   

Disassembly of section .plt:

0000000000401020 <__errno_location@plt-0x10>:
  401020:	ff 35 e2 5f 00 00    	pushq  0x5fe2(%rip)        # 407008 <_GLOBAL_OFFSET_TABLE_+0x8>
  401026:	ff 25 e4 5f 00 00    	jmpq   *0x5fe4(%rip)        # 407010 <_GLOBAL_OFFSET_TABLE_+0x10>
  40102c:	0f 1f 40 00          	nopl   0x0(%rax)

0000000000401030 <__errno_location@plt>:
  401030:	ff 25 e2 5f 00 00    	jmpq   *0x5fe2(%rip)        # 407018 <__errno_location@GLIBC_2.2.5>
  401036:	68 00 00 00 00       	pushq  $0x0
  40103b:	e9 e0 ff ff ff       	jmpq   401020 <_init+0x20>

0000000000401040 <srandom@plt>:
  401040:	ff 25 da 5f 00 00    	jmpq   *0x5fda(%rip)        # 407020 <srandom@GLIBC_2.2.5>
  401046:	68 01 00 00 00       	pushq  $0x1
  40104b:	e9 d0 ff ff ff       	jmpq   401020 <_init+0x20>

0000000000401050 <strncmp@plt>:
  401050:	ff 25 d2 5f 00 00    	jmpq   *0x5fd2(%rip)        # 407028 <strncmp@GLIBC_2.2.5>
  401056:	68 02 00 00 00       	pushq  $0x2
  40105b:	e9 c0 ff ff ff       	jmpq   401020 <_init+0x20>

0000000000401060 <strcpy@plt>:
  401060:	ff 25 ca 5f 00 00    	jmpq   *0x5fca(%rip)        # 407030 <strcpy@GLIBC_2.2.5>
  401066:	68 03 00 00 00       	pushq  $0x3
  40106b:	e9 b0 ff ff ff       	jmpq   401020 <_init+0x20>

0000000000401070 <__read_chk@plt>:
  401070:	ff 25 c2 5f 00 00    	jmpq   *0x5fc2(%rip)        # 407038 <__read_chk@GLIBC_2.4>
  401076:	68 04 00 00 00       	pushq  $0x4
  40107b:	e9 a0 ff ff ff       	jmpq   401020 <_init+0x20>

0000000000401080 <puts@plt>:
  401080:	ff 25 ba 5f 00 00    	jmpq   *0x5fba(%rip)        # 407040 <puts@GLIBC_2.2.5>
  401086:	68 05 00 00 00       	pushq  $0x5
  40108b:	e9 90 ff ff ff       	jmpq   401020 <_init+0x20>

0000000000401090 <write@plt>:
  401090:	ff 25 b2 5f 00 00    	jmpq   *0x5fb2(%rip)        # 407048 <write@GLIBC_2.2.5>
  401096:	68 06 00 00 00       	pushq  $0x6
  40109b:	e9 80 ff ff ff       	jmpq   401020 <_init+0x20>

00000000004010a0 <mmap@plt>:
  4010a0:	ff 25 aa 5f 00 00    	jmpq   *0x5faa(%rip)        # 407050 <mmap@GLIBC_2.2.5>
  4010a6:	68 07 00 00 00       	pushq  $0x7
  4010ab:	e9 70 ff ff ff       	jmpq   401020 <_init+0x20>

00000000004010b0 <memset@plt>:
  4010b0:	ff 25 a2 5f 00 00    	jmpq   *0x5fa2(%rip)        # 407058 <memset@GLIBC_2.2.5>
  4010b6:	68 08 00 00 00       	pushq  $0x8
  4010bb:	e9 60 ff ff ff       	jmpq   401020 <_init+0x20>

00000000004010c0 <alarm@plt>:
  4010c0:	ff 25 9a 5f 00 00    	jmpq   *0x5f9a(%rip)        # 407060 <alarm@GLIBC_2.2.5>
  4010c6:	68 09 00 00 00       	pushq  $0x9
  4010cb:	e9 50 ff ff ff       	jmpq   401020 <_init+0x20>

00000000004010d0 <close@plt>:
  4010d0:	ff 25 92 5f 00 00    	jmpq   *0x5f92(%rip)        # 407068 <close@GLIBC_2.2.5>
  4010d6:	68 0a 00 00 00       	pushq  $0xa
  4010db:	e9 40 ff ff ff       	jmpq   401020 <_init+0x20>

00000000004010e0 <signal@plt>:
  4010e0:	ff 25 8a 5f 00 00    	jmpq   *0x5f8a(%rip)        # 407070 <signal@GLIBC_2.2.5>
  4010e6:	68 0b 00 00 00       	pushq  $0xb
  4010eb:	e9 30 ff ff ff       	jmpq   401020 <_init+0x20>

00000000004010f0 <gethostbyname@plt>:
  4010f0:	ff 25 82 5f 00 00    	jmpq   *0x5f82(%rip)        # 407078 <gethostbyname@GLIBC_2.2.5>
  4010f6:	68 0c 00 00 00       	pushq  $0xc
  4010fb:	e9 20 ff ff ff       	jmpq   401020 <_init+0x20>

0000000000401100 <__memmove_chk@plt>:
  401100:	ff 25 7a 5f 00 00    	jmpq   *0x5f7a(%rip)        # 407080 <__memmove_chk@GLIBC_2.3.4>
  401106:	68 0d 00 00 00       	pushq  $0xd
  40110b:	e9 10 ff ff ff       	jmpq   401020 <_init+0x20>

0000000000401110 <strtol@plt>:
  401110:	ff 25 72 5f 00 00    	jmpq   *0x5f72(%rip)        # 407088 <strtol@GLIBC_2.2.5>
  401116:	68 0e 00 00 00       	pushq  $0xe
  40111b:	e9 00 ff ff ff       	jmpq   401020 <_init+0x20>

0000000000401120 <memcpy@plt>:
  401120:	ff 25 6a 5f 00 00    	jmpq   *0x5f6a(%rip)        # 407090 <memcpy@GLIBC_2.14>
  401126:	68 0f 00 00 00       	pushq  $0xf
  40112b:	e9 f0 fe ff ff       	jmpq   401020 <_init+0x20>

0000000000401130 <time@plt>:
  401130:	ff 25 62 5f 00 00    	jmpq   *0x5f62(%rip)        # 407098 <time@GLIBC_2.2.5>
  401136:	68 10 00 00 00       	pushq  $0x10
  40113b:	e9 e0 fe ff ff       	jmpq   401020 <_init+0x20>

0000000000401140 <random@plt>:
  401140:	ff 25 5a 5f 00 00    	jmpq   *0x5f5a(%rip)        # 4070a0 <random@GLIBC_2.2.5>
  401146:	68 11 00 00 00       	pushq  $0x11
  40114b:	e9 d0 fe ff ff       	jmpq   401020 <_init+0x20>

0000000000401150 <__isoc99_sscanf@plt>:
  401150:	ff 25 52 5f 00 00    	jmpq   *0x5f52(%rip)        # 4070a8 <__isoc99_sscanf@GLIBC_2.7>
  401156:	68 12 00 00 00       	pushq  $0x12
  40115b:	e9 c0 fe ff ff       	jmpq   401020 <_init+0x20>

0000000000401160 <munmap@plt>:
  401160:	ff 25 4a 5f 00 00    	jmpq   *0x5f4a(%rip)        # 4070b0 <munmap@GLIBC_2.2.5>
  401166:	68 13 00 00 00       	pushq  $0x13
  40116b:	e9 b0 fe ff ff       	jmpq   401020 <_init+0x20>

0000000000401170 <__printf_chk@plt>:
  401170:	ff 25 42 5f 00 00    	jmpq   *0x5f42(%rip)        # 4070b8 <__printf_chk@GLIBC_2.3.4>
  401176:	68 14 00 00 00       	pushq  $0x14
  40117b:	e9 a0 fe ff ff       	jmpq   401020 <_init+0x20>

0000000000401180 <fopen@plt>:
  401180:	ff 25 3a 5f 00 00    	jmpq   *0x5f3a(%rip)        # 4070c0 <fopen@GLIBC_2.2.5>
  401186:	68 15 00 00 00       	pushq  $0x15
  40118b:	e9 90 fe ff ff       	jmpq   401020 <_init+0x20>

0000000000401190 <getopt@plt>:
  401190:	ff 25 32 5f 00 00    	jmpq   *0x5f32(%rip)        # 4070c8 <getopt@GLIBC_2.2.5>
  401196:	68 16 00 00 00       	pushq  $0x16
  40119b:	e9 80 fe ff ff       	jmpq   401020 <_init+0x20>

00000000004011a0 <strtoul@plt>:
  4011a0:	ff 25 2a 5f 00 00    	jmpq   *0x5f2a(%rip)        # 4070d0 <strtoul@GLIBC_2.2.5>
  4011a6:	68 17 00 00 00       	pushq  $0x17
  4011ab:	e9 70 fe ff ff       	jmpq   401020 <_init+0x20>

00000000004011b0 <gethostname@plt>:
  4011b0:	ff 25 22 5f 00 00    	jmpq   *0x5f22(%rip)        # 4070d8 <gethostname@GLIBC_2.2.5>
  4011b6:	68 18 00 00 00       	pushq  $0x18
  4011bb:	e9 60 fe ff ff       	jmpq   401020 <_init+0x20>

00000000004011c0 <exit@plt>:
  4011c0:	ff 25 1a 5f 00 00    	jmpq   *0x5f1a(%rip)        # 4070e0 <exit@GLIBC_2.2.5>
  4011c6:	68 19 00 00 00       	pushq  $0x19
  4011cb:	e9 50 fe ff ff       	jmpq   401020 <_init+0x20>

00000000004011d0 <connect@plt>:
  4011d0:	ff 25 12 5f 00 00    	jmpq   *0x5f12(%rip)        # 4070e8 <connect@GLIBC_2.2.5>
  4011d6:	68 1a 00 00 00       	pushq  $0x1a
  4011db:	e9 40 fe ff ff       	jmpq   401020 <_init+0x20>

00000000004011e0 <__fprintf_chk@plt>:
  4011e0:	ff 25 0a 5f 00 00    	jmpq   *0x5f0a(%rip)        # 4070f0 <__fprintf_chk@GLIBC_2.3.4>
  4011e6:	68 1b 00 00 00       	pushq  $0x1b
  4011eb:	e9 30 fe ff ff       	jmpq   401020 <_init+0x20>

00000000004011f0 <getc@plt>:
  4011f0:	ff 25 02 5f 00 00    	jmpq   *0x5f02(%rip)        # 4070f8 <getc@GLIBC_2.2.5>
  4011f6:	68 1c 00 00 00       	pushq  $0x1c
  4011fb:	e9 20 fe ff ff       	jmpq   401020 <_init+0x20>

0000000000401200 <__sprintf_chk@plt>:
  401200:	ff 25 fa 5e 00 00    	jmpq   *0x5efa(%rip)        # 407100 <__sprintf_chk@GLIBC_2.3.4>
  401206:	68 1d 00 00 00       	pushq  $0x1d
  40120b:	e9 10 fe ff ff       	jmpq   401020 <_init+0x20>

0000000000401210 <socket@plt>:
  401210:	ff 25 f2 5e 00 00    	jmpq   *0x5ef2(%rip)        # 407108 <socket@GLIBC_2.2.5>
  401216:	68 1e 00 00 00       	pushq  $0x1e
  40121b:	e9 00 fe ff ff       	jmpq   401020 <_init+0x20>

Disassembly of section .text:

0000000000401220 <_start>:
  401220:	f3 0f 1e fa          	endbr64 
  401224:	31 ed                	xor    %ebp,%ebp
  401226:	49 89 d1             	mov    %rdx,%r9
  401229:	5e                   	pop    %rsi
  40122a:	48 89 e2             	mov    %rsp,%rdx
  40122d:	48 83 e4 f0          	and    $0xfffffffffffffff0,%rsp
  401231:	50                   	push   %rax
  401232:	54                   	push   %rsp
  401233:	45 31 c0             	xor    %r8d,%r8d
  401236:	31 c9                	xor    %ecx,%ecx
  401238:	48 c7 c7 a7 14 40 00 	mov    $0x4014a7,%rdi
  40123f:	ff 15 ab 5d 00 00    	callq  *0x5dab(%rip)        # 406ff0 <__libc_start_main@GLIBC_2.34>
  401245:	f4                   	hlt    
  401246:	66 2e 0f 1f 84 00 00 	nopw   %cs:0x0(%rax,%rax,1)
  40124d:	00 00 00 

0000000000401250 <_dl_relocate_static_pie>:
  401250:	f3 0f 1e fa          	endbr64 
  401254:	c3                   	retq   
  401255:	66 2e 0f 1f 84 00 00 	nopw   %cs:0x0(%rax,%rax,1)
  40125c:	00 00 00 
  40125f:	90                   	nop

0000000000401260 <deregister_tm_clones>:
  401260:	55                   	push   %rbp
  401261:	b8 90 74 40 00       	mov    $0x407490,%eax
  401266:	48 3d 90 74 40 00    	cmp    $0x407490,%rax
  40126c:	48 89 e5             	mov    %rsp,%rbp
  40126f:	74 17                	je     401288 <deregister_tm_clones+0x28>
  401271:	b8 00 00 00 00       	mov    $0x0,%eax
  401276:	48 85 c0             	test   %rax,%rax
  401279:	74 0d                	je     401288 <deregister_tm_clones+0x28>
  40127b:	5d                   	pop    %rbp
  40127c:	bf 90 74 40 00       	mov    $0x407490,%edi
  401281:	ff e0                	jmpq   *%rax
  401283:	0f 1f 44 00 00       	nopl   0x0(%rax,%rax,1)
  401288:	5d                   	pop    %rbp
  401289:	c3                   	retq   
  40128a:	66 0f 1f 44 00 00    	nopw   0x0(%rax,%rax,1)

0000000000401290 <register_tm_clones>:
  401290:	be 90 74 40 00       	mov    $0x407490,%esi
  401295:	55                   	push   %rbp
  401296:	48 81 ee 90 74 40 00 	sub    $0x407490,%rsi
  40129d:	48 89 e5             	mov    %rsp,%rbp
  4012a0:	48 c1 fe 03          	sar    $0x3,%rsi
  4012a4:	48 89 f0             	mov    %rsi,%rax
  4012a7:	48 c1 e8 3f          	shr    $0x3f,%rax
  4012ab:	48 01 c6             	add    %rax,%rsi
  4012ae:	48 d1 fe             	sar    %rsi
  4012b1:	74 15                	je     4012c8 <register_tm_clones+0x38>
  4012b3:	b8 00 00 00 00       	mov    $0x0,%eax
  4012b8:	48 85 c0             	test   %rax,%rax
  4012bb:	74 0b                	je     4012c8 <register_tm_clones+0x38>
  4012bd:	5d                   	pop    %rbp
  4012be:	bf 90 74 40 00       	mov    $0x407490,%edi
  4012c3:	ff e0                	jmpq   *%rax
  4012c5:	0f 1f 00             	nopl   (%rax)
  4012c8:	5d                   	pop    %rbp
  4012c9:	c3                   	retq   
  4012ca:	66 0f 1f 44 00 00    	nopw   0x0(%rax,%rax,1)

00000000004012d0 <__do_global_dtors_aux>:
  4012d0:	80 3d 11 62 00 00 00 	cmpb   $0x0,0x6211(%rip)        # 4074e8 <completed.7658>
  4012d7:	75 17                	jne    4012f0 <__do_global_dtors_aux+0x20>
  4012d9:	55                   	push   %rbp
  4012da:	48 89 e5             	mov    %rsp,%rbp
  4012dd:	e8 7e ff ff ff       	callq  401260 <deregister_tm_clones>
  4012e2:	c6 05 ff 61 00 00 01 	movb   $0x1,0x61ff(%rip)        # 4074e8 <completed.7658>
  4012e9:	5d                   	pop    %rbp
  4012ea:	c3                   	retq   
  4012eb:	0f 1f 44 00 00       	nopl   0x0(%rax,%rax,1)
  4012f0:	f3 c3                	repz retq 
  4012f2:	66 66 2e 0f 1f 84 00 	data16 nopw %cs:0x0(%rax,%rax,1)
  4012f9:	00 00 00 00 
  4012fd:	0f 1f 00             	nopl   (%rax)

0000000000401300 <frame_dummy>:
  401300:	55                   	push   %rbp
  401301:	48 89 e5             	mov    %rsp,%rbp
  401304:	5d                   	pop    %rbp
  401305:	eb 89                	jmp    401290 <register_tm_clones>

0000000000401307 <usage>:
  401307:	48 83 ec 08          	sub    $0x8,%rsp
  40130b:	48 89 fa             	mov    %rdi,%rdx
  40130e:	83 3d 13 62 00 00 00 	cmpl   $0x0,0x6213(%rip)        # 407528 <is_checker>
  401315:	74 50                	je     401367 <usage+0x60>
  401317:	48 8d 35 ea 2c 00 00 	lea    0x2cea(%rip),%rsi        # 404008 <_IO_stdin_used+0x8>
  40131e:	bf 01 00 00 00       	mov    $0x1,%edi
  401323:	b8 00 00 00 00       	mov    $0x0,%eax
  401328:	e8 43 fe ff ff       	callq  401170 <__printf_chk@plt>
  40132d:	48 8d 3d 0c 2d 00 00 	lea    0x2d0c(%rip),%rdi        # 404040 <_IO_stdin_used+0x40>
  401334:	e8 47 fd ff ff       	callq  401080 <puts@plt>
  401339:	48 8d 3d 38 2e 00 00 	lea    0x2e38(%rip),%rdi        # 404178 <_IO_stdin_used+0x178>
  401340:	e8 3b fd ff ff       	callq  401080 <puts@plt>
  401345:	48 8d 3d 1c 2d 00 00 	lea    0x2d1c(%rip),%rdi        # 404068 <_IO_stdin_used+0x68>
  40134c:	e8 2f fd ff ff       	callq  401080 <puts@plt>
  401351:	48 8d 3d 3a 2e 00 00 	lea    0x2e3a(%rip),%rdi        # 404192 <_IO_stdin_used+0x192>
  401358:	e8 23 fd ff ff       	callq  401080 <puts@plt>
  40135d:	bf 00 00 00 00       	mov    $0x0,%edi
  401362:	e8 59 fe ff ff       	callq  4011c0 <exit@plt>
  401367:	48 8d 35 40 2e 00 00 	lea    0x2e40(%rip),%rsi        # 4041ae <_IO_stdin_used+0x1ae>
  40136e:	bf 01 00 00 00       	mov    $0x1,%edi
  401373:	b8 00 00 00 00       	mov    $0x0,%eax
  401378:	e8 f3 fd ff ff       	callq  401170 <__printf_chk@plt>
  40137d:	48 8d 3d 0c 2d 00 00 	lea    0x2d0c(%rip),%rdi        # 404090 <_IO_stdin_used+0x90>
  401384:	e8 f7 fc ff ff       	callq  401080 <puts@plt>
  401389:	48 8d 3d 28 2d 00 00 	lea    0x2d28(%rip),%rdi        # 4040b8 <_IO_stdin_used+0xb8>
  401390:	e8 eb fc ff ff       	callq  401080 <puts@plt>
  401395:	48 8d 3d 30 2e 00 00 	lea    0x2e30(%rip),%rdi        # 4041cc <_IO_stdin_used+0x1cc>
  40139c:	e8 df fc ff ff       	callq  401080 <puts@plt>
  4013a1:	eb ba                	jmp    40135d <usage+0x56>

00000000004013a3 <initialize_target>:
  4013a3:	55                   	push   %rbp
  4013a4:	53                   	push   %rbx
  4013a5:	48 81 ec 08 21 00 00 	sub    $0x2108,%rsp
  4013ac:	89 f5                	mov    %esi,%ebp
  4013ae:	89 3d 64 61 00 00    	mov    %edi,0x6164(%rip)        # 407518 <check_level>
  4013b4:	8b 3d 76 5d 00 00    	mov    0x5d76(%rip),%edi        # 407130 <target_id>
  4013ba:	e8 6d 1d 00 00       	callq  40312c <gencookie>
  4013bf:	89 05 5f 61 00 00    	mov    %eax,0x615f(%rip)        # 407524 <cookie>
  4013c5:	89 c7                	mov    %eax,%edi
  4013c7:	e8 60 1d 00 00       	callq  40312c <gencookie>
  4013cc:	89 05 4e 61 00 00    	mov    %eax,0x614e(%rip)        # 407520 <authkey>
  4013d2:	8b 05 58 5d 00 00    	mov    0x5d58(%rip),%eax        # 407130 <target_id>
  4013d8:	8d 78 01             	lea    0x1(%rax),%edi
  4013db:	e8 60 fc ff ff       	callq  401040 <srandom@plt>
  4013e0:	e8 5b fd ff ff       	callq  401140 <random@plt>
  4013e5:	89 c7                	mov    %eax,%edi
  4013e7:	e8 a6 02 00 00       	callq  401692 <scramble>
  4013ec:	89 c3                	mov    %eax,%ebx
  4013ee:	85 ed                	test   %ebp,%ebp
  4013f0:	75 3d                	jne    40142f <initialize_target+0x8c>
  4013f2:	b8 00 00 00 00       	mov    $0x0,%eax
  4013f7:	01 d8                	add    %ebx,%eax
  4013f9:	0f b7 c0             	movzwl %ax,%eax
  4013fc:	8d 04 c5 00 01 00 00 	lea    0x100(,%rax,8),%eax
  401403:	89 c0                	mov    %eax,%eax
  401405:	48 89 05 74 60 00 00 	mov    %rax,0x6074(%rip)        # 407480 <buf_offset>
  40140c:	c6 05 35 6d 00 00 72 	movb   $0x72,0x6d35(%rip)        # 408148 <target_prefix>
  401413:	83 3d 6e 60 00 00 00 	cmpl   $0x0,0x606e(%rip)        # 407488 <notify>
  40141a:	74 09                	je     401425 <initialize_target+0x82>
  40141c:	83 3d 05 61 00 00 00 	cmpl   $0x0,0x6105(%rip)        # 407528 <is_checker>
  401423:	74 22                	je     401447 <initialize_target+0xa4>
  401425:	48 81 c4 08 21 00 00 	add    $0x2108,%rsp
  40142c:	5b                   	pop    %rbx
  40142d:	5d                   	pop    %rbp
  40142e:	c3                   	retq   
  40142f:	bf 00 00 00 00       	mov    $0x0,%edi
  401434:	e8 f7 fc ff ff       	callq  401130 <time@plt>
  401439:	89 c7                	mov    %eax,%edi
  40143b:	e8 00 fc ff ff       	callq  401040 <srandom@plt>
  401440:	e8 fb fc ff ff       	callq  401140 <random@plt>
  401445:	eb b0                	jmp    4013f7 <initialize_target+0x54>
  401447:	48 89 e7             	mov    %rsp,%rdi
  40144a:	be 00 01 00 00       	mov    $0x100,%esi
  40144f:	e8 5c fd ff ff       	callq  4011b0 <gethostname@plt>
  401454:	85 c0                	test   %eax,%eax
  401456:	75 39                	jne    401491 <initialize_target+0xee>
  401458:	48 8d bc 24 00 01 00 	lea    0x100(%rsp),%rdi
  40145f:	00 
  401460:	e8 20 1a 00 00       	callq  402e85 <init_driver>
  401465:	85 c0                	test   %eax,%eax
  401467:	79 bc                	jns    401425 <initialize_target+0x82>
  401469:	48 8d 94 24 00 01 00 	lea    0x100(%rsp),%rdx
  401470:	00 
  401471:	48 8d 35 a8 2c 00 00 	lea    0x2ca8(%rip),%rsi        # 404120 <_IO_stdin_used+0x120>
  401478:	bf 01 00 00 00       	mov    $0x1,%edi
  40147d:	b8 00 00 00 00       	mov    $0x0,%eax
  401482:	e8 e9 fc ff ff       	callq  401170 <__printf_chk@plt>
  401487:	bf 08 00 00 00       	mov    $0x8,%edi
  40148c:	e8 2f fd ff ff       	callq  4011c0 <exit@plt>
  401491:	48 8d 3d 50 2c 00 00 	lea    0x2c50(%rip),%rdi        # 4040e8 <_IO_stdin_used+0xe8>
  401498:	e8 e3 fb ff ff       	callq  401080 <puts@plt>
  40149d:	bf 08 00 00 00       	mov    $0x8,%edi
  4014a2:	e8 19 fd ff ff       	callq  4011c0 <exit@plt>

00000000004014a7 <main>:
  4014a7:	41 56                	push   %r14
  4014a9:	41 55                	push   %r13
  4014ab:	41 54                	push   %r12
  4014ad:	55                   	push   %rbp
  4014ae:	53                   	push   %rbx
  4014af:	41 89 fc             	mov    %edi,%r12d
  4014b2:	48 89 f3             	mov    %rsi,%rbx
  4014b5:	48 c7 c6 fc 21 40 00 	mov    $0x4021fc,%rsi
  4014bc:	bf 0b 00 00 00       	mov    $0xb,%edi
  4014c1:	e8 1a fc ff ff       	callq  4010e0 <signal@plt>
  4014c6:	48 c7 c6 a8 21 40 00 	mov    $0x4021a8,%rsi
  4014cd:	bf 07 00 00 00       	mov    $0x7,%edi
  4014d2:	e8 09 fc ff ff       	callq  4010e0 <signal@plt>
  4014d7:	48 c7 c6 50 22 40 00 	mov    $0x402250,%rsi
  4014de:	bf 04 00 00 00       	mov    $0x4,%edi
  4014e3:	e8 f8 fb ff ff       	callq  4010e0 <signal@plt>
  4014e8:	83 3d 39 60 00 00 00 	cmpl   $0x0,0x6039(%rip)        # 407528 <is_checker>
  4014ef:	75 26                	jne    401517 <main+0x70>
  4014f1:	48 8d 2d ed 2c 00 00 	lea    0x2ced(%rip),%rbp        # 4041e5 <_IO_stdin_used+0x1e5>
  4014f8:	48 8b 05 a1 5f 00 00 	mov    0x5fa1(%rip),%rax        # 4074a0 <stdin@@GLIBC_2.2.5>
  4014ff:	48 89 05 0a 60 00 00 	mov    %rax,0x600a(%rip)        # 407510 <infile>
  401506:	41 bd 00 00 00 00    	mov    $0x0,%r13d
  40150c:	41 be 00 00 00 00    	mov    $0x0,%r14d
  401512:	e9 8d 00 00 00       	jmpq   4015a4 <main+0xfd>
  401517:	48 c7 c6 a4 22 40 00 	mov    $0x4022a4,%rsi
  40151e:	bf 0e 00 00 00       	mov    $0xe,%edi
  401523:	e8 b8 fb ff ff       	callq  4010e0 <signal@plt>
  401528:	bf 05 00 00 00       	mov    $0x5,%edi
  40152d:	e8 8e fb ff ff       	callq  4010c0 <alarm@plt>
  401532:	48 8d 2d b1 2c 00 00 	lea    0x2cb1(%rip),%rbp        # 4041ea <_IO_stdin_used+0x1ea>
  401539:	eb bd                	jmp    4014f8 <main+0x51>
  40153b:	48 8b 3b             	mov    (%rbx),%rdi
  40153e:	e8 c4 fd ff ff       	callq  401307 <usage>
  401543:	48 8d 35 0b 2f 00 00 	lea    0x2f0b(%rip),%rsi        # 404455 <_IO_stdin_used+0x455>
  40154a:	48 8b 3d 6f 5f 00 00 	mov    0x5f6f(%rip),%rdi        # 4074c0 <optarg@@GLIBC_2.2.5>
  401551:	e8 2a fc ff ff       	callq  401180 <fopen@plt>
  401556:	48 89 05 b3 5f 00 00 	mov    %rax,0x5fb3(%rip)        # 407510 <infile>
  40155d:	48 85 c0             	test   %rax,%rax
  401560:	75 42                	jne    4015a4 <main+0xfd>
  401562:	48 8b 0d 57 5f 00 00 	mov    0x5f57(%rip),%rcx        # 4074c0 <optarg@@GLIBC_2.2.5>
  401569:	48 8d 15 82 2c 00 00 	lea    0x2c82(%rip),%rdx        # 4041f2 <_IO_stdin_used+0x1f2>
  401570:	be 01 00 00 00       	mov    $0x1,%esi
  401575:	48 8b 3d 64 5f 00 00 	mov    0x5f64(%rip),%rdi        # 4074e0 <stderr@@GLIBC_2.2.5>
  40157c:	e8 5f fc ff ff       	callq  4011e0 <__fprintf_chk@plt>
  401581:	b8 01 00 00 00       	mov    $0x1,%eax
  401586:	e9 d9 00 00 00       	jmpq   401664 <main+0x1bd>
  40158b:	ba 10 00 00 00       	mov    $0x10,%edx
  401590:	be 00 00 00 00       	mov    $0x0,%esi
  401595:	48 8b 3d 24 5f 00 00 	mov    0x5f24(%rip),%rdi        # 4074c0 <optarg@@GLIBC_2.2.5>
  40159c:	e8 ff fb ff ff       	callq  4011a0 <strtoul@plt>
  4015a1:	41 89 c6             	mov    %eax,%r14d
  4015a4:	48 89 ea             	mov    %rbp,%rdx
  4015a7:	48 89 de             	mov    %rbx,%rsi
  4015aa:	44 89 e7             	mov    %r12d,%edi
  4015ad:	e8 de fb ff ff       	callq  401190 <getopt@plt>
  4015b2:	3c ff                	cmp    $0xff,%al
  4015b4:	74 62                	je     401618 <main+0x171>
  4015b6:	0f be d0             	movsbl %al,%edx
  4015b9:	83 e8 61             	sub    $0x61,%eax
  4015bc:	3c 10                	cmp    $0x10,%al
  4015be:	77 3a                	ja     4015fa <main+0x153>
  4015c0:	0f b6 c0             	movzbl %al,%eax
  4015c3:	48 8d 0d 66 2c 00 00 	lea    0x2c66(%rip),%rcx        # 404230 <_IO_stdin_used+0x230>
  4015ca:	48 63 04 81          	movslq (%rcx,%rax,4),%rax
  4015ce:	48 01 c8             	add    %rcx,%rax
  4015d1:	ff e0                	jmpq   *%rax
  4015d3:	ba 0a 00 00 00       	mov    $0xa,%edx
  4015d8:	be 00 00 00 00       	mov    $0x0,%esi
  4015dd:	48 8b 3d dc 5e 00 00 	mov    0x5edc(%rip),%rdi        # 4074c0 <optarg@@GLIBC_2.2.5>
  4015e4:	e8 27 fb ff ff       	callq  401110 <strtol@plt>
  4015e9:	41 89 c5             	mov    %eax,%r13d
  4015ec:	eb b6                	jmp    4015a4 <main+0xfd>
  4015ee:	c7 05 90 5e 00 00 00 	movl   $0x0,0x5e90(%rip)        # 407488 <notify>
  4015f5:	00 00 00 
  4015f8:	eb aa                	jmp    4015a4 <main+0xfd>
  4015fa:	48 8d 35 0e 2c 00 00 	lea    0x2c0e(%rip),%rsi        # 40420f <_IO_stdin_used+0x20f>
  401601:	bf 01 00 00 00       	mov    $0x1,%edi
  401606:	b8 00 00 00 00       	mov    $0x0,%eax
  40160b:	e8 60 fb ff ff       	callq  401170 <__printf_chk@plt>
  401610:	48 8b 3b             	mov    (%rbx),%rdi
  401613:	e8 ef fc ff ff       	callq  401307 <usage>
  401618:	be 01 00 00 00       	mov    $0x1,%esi
  40161d:	44 89 ef             	mov    %r13d,%edi
  401620:	e8 7e fd ff ff       	callq  4013a3 <initialize_target>
  401625:	83 3d fc 5e 00 00 00 	cmpl   $0x0,0x5efc(%rip)        # 407528 <is_checker>
  40162c:	74 09                	je     401637 <main+0x190>
  40162e:	44 39 35 eb 5e 00 00 	cmp    %r14d,0x5eeb(%rip)        # 407520 <authkey>
  401635:	75 36                	jne    40166d <main+0x1c6>
  401637:	8b 15 e7 5e 00 00    	mov    0x5ee7(%rip),%edx        # 407524 <cookie>
  40163d:	48 8d 35 de 2b 00 00 	lea    0x2bde(%rip),%rsi        # 404222 <_IO_stdin_used+0x222>
  401644:	bf 01 00 00 00       	mov    $0x1,%edi
  401649:	b8 00 00 00 00       	mov    $0x0,%eax
  40164e:	e8 1d fb ff ff       	callq  401170 <__printf_chk@plt>
  401653:	48 8b 3d 26 5e 00 00 	mov    0x5e26(%rip),%rdi        # 407480 <buf_offset>
  40165a:	e8 9c 0c 00 00       	callq  4022fb <launch>
  40165f:	b8 00 00 00 00       	mov    $0x0,%eax
  401664:	5b                   	pop    %rbx
  401665:	5d                   	pop    %rbp
  401666:	41 5c                	pop    %r12
  401668:	41 5d                	pop    %r13
  40166a:	41 5e                	pop    %r14
  40166c:	c3                   	retq   
  40166d:	44 89 f2             	mov    %r14d,%edx
  401670:	48 8d 35 d1 2a 00 00 	lea    0x2ad1(%rip),%rsi        # 404148 <_IO_stdin_used+0x148>
  401677:	bf 01 00 00 00       	mov    $0x1,%edi
  40167c:	b8 00 00 00 00       	mov    $0x0,%eax
  401681:	e8 ea fa ff ff       	callq  401170 <__printf_chk@plt>
  401686:	b8 00 00 00 00       	mov    $0x0,%eax
  40168b:	e8 a3 07 00 00       	callq  401e33 <check_fail>
  401690:	eb a5                	jmp    401637 <main+0x190>

0000000000401692 <scramble>:
  401692:	b8 00 00 00 00       	mov    $0x0,%eax
  401697:	eb 11                	jmp    4016aa <scramble+0x18>
  401699:	69 d0 9e c8 00 00    	imul   $0xc89e,%eax,%edx
  40169f:	01 fa                	add    %edi,%edx
  4016a1:	89 c1                	mov    %eax,%ecx
  4016a3:	89 54 8c d0          	mov    %edx,-0x30(%rsp,%rcx,4)
  4016a7:	83 c0 01             	add    $0x1,%eax
  4016aa:	83 f8 09             	cmp    $0x9,%eax
  4016ad:	76 ea                	jbe    401699 <scramble+0x7>
  4016af:	8b 44 24 e0          	mov    -0x20(%rsp),%eax
  4016b3:	69 c0 1e 05 00 00    	imul   $0x51e,%eax,%eax
  4016b9:	89 44 24 e0          	mov    %eax,-0x20(%rsp)
  4016bd:	8b 44 24 d8          	mov    -0x28(%rsp),%eax
  4016c1:	69 c0 98 ab 00 00    	imul   $0xab98,%eax,%eax
  4016c7:	89 44 24 d8          	mov    %eax,-0x28(%rsp)
  4016cb:	8b 44 24 f4          	mov    -0xc(%rsp),%eax
  4016cf:	69 c0 20 b0 00 00    	imul   $0xb020,%eax,%eax
  4016d5:	89 44 24 f4          	mov    %eax,-0xc(%rsp)
  4016d9:	8b 44 24 f4          	mov    -0xc(%rsp),%eax
  4016dd:	69 c0 ef f2 00 00    	imul   $0xf2ef,%eax,%eax
  4016e3:	89 44 24 f4          	mov    %eax,-0xc(%rsp)
  4016e7:	8b 44 24 ec          	mov    -0x14(%rsp),%eax
  4016eb:	69 c0 32 07 00 00    	imul   $0x732,%eax,%eax
  4016f1:	89 44 24 ec          	mov    %eax,-0x14(%rsp)
  4016f5:	8b 44 24 dc          	mov    -0x24(%rsp),%eax
  4016f9:	69 c0 dc d7 00 00    	imul   $0xd7dc,%eax,%eax
  4016ff:	89 44 24 dc          	mov    %eax,-0x24(%rsp)
  401703:	8b 44 24 d4          	mov    -0x2c(%rsp),%eax
  401707:	69 c0 33 9a 00 00    	imul   $0x9a33,%eax,%eax
  40170d:	89 44 24 d4          	mov    %eax,-0x2c(%rsp)
  401711:	8b 44 24 d4          	mov    -0x2c(%rsp),%eax
  401715:	69 c0 cf 57 00 00    	imul   $0x57cf,%eax,%eax
  40171b:	89 44 24 d4          	mov    %eax,-0x2c(%rsp)
  40171f:	8b 44 24 dc          	mov    -0x24(%rsp),%eax
  401723:	69 c0 a8 13 00 00    	imul   $0x13a8,%eax,%eax
  401729:	89 44 24 dc          	mov    %eax,-0x24(%rsp)
  40172d:	8b 44 24 d4          	mov    -0x2c(%rsp),%eax
  401731:	69 c0 09 8f 00 00    	imul   $0x8f09,%eax,%eax
  401737:	89 44 24 d4          	mov    %eax,-0x2c(%rsp)
  40173b:	8b 44 24 f0          	mov    -0x10(%rsp),%eax
  40173f:	69 c0 22 7a 00 00    	imul   $0x7a22,%eax,%eax
  401745:	89 44 24 f0          	mov    %eax,-0x10(%rsp)
  401749:	8b 44 24 d8          	mov    -0x28(%rsp),%eax
  40174d:	69 c0 ae 31 00 00    	imul   $0x31ae,%eax,%eax
  401753:	89 44 24 d8          	mov    %eax,-0x28(%rsp)
  401757:	8b 44 24 dc          	mov    -0x24(%rsp),%eax
  40175b:	69 c0 4d c8 00 00    	imul   $0xc84d,%eax,%eax
  401761:	89 44 24 dc          	mov    %eax,-0x24(%rsp)
  401765:	8b 44 24 f4          	mov    -0xc(%rsp),%eax
  401769:	69 c0 3a 24 00 00    	imul   $0x243a,%eax,%eax
  40176f:	89 44 24 f4          	mov    %eax,-0xc(%rsp)
  401773:	8b 44 24 e8          	mov    -0x18(%rsp),%eax
  401777:	69 c0 37 73 00 00    	imul   $0x7337,%eax,%eax
  40177d:	89 44 24 e8          	mov    %eax,-0x18(%rsp)
  401781:	8b 44 24 d4          	mov    -0x2c(%rsp),%eax
  401785:	69 c0 f9 0c 00 00    	imul   $0xcf9,%eax,%eax
  40178b:	89 44 24 d4          	mov    %eax,-0x2c(%rsp)
  40178f:	8b 44 24 f4          	mov    -0xc(%rsp),%eax
  401793:	69 c0 db d8 00 00    	imul   $0xd8db,%eax,%eax
  401799:	89 44 24 f4          	mov    %eax,-0xc(%rsp)
  40179d:	8b 44 24 ec          	mov    -0x14(%rsp),%eax
  4017a1:	69 c0 34 a5 00 00    	imul   $0xa534,%eax,%eax
  4017a7:	89 44 24 ec          	mov    %eax,-0x14(%rsp)
  4017ab:	8b 44 24 d4          	mov    -0x2c(%rsp),%eax
  4017af:	69 c0 e4 90 00 00    	imul   $0x90e4,%eax,%eax
  4017b5:	89 44 24 d4          	mov    %eax,-0x2c(%rsp)
  4017b9:	8b 44 24 e8          	mov    -0x18(%rsp),%eax
  4017bd:	69 c0 22 13 00 00    	imul   $0x1322,%eax,%eax
  4017c3:	89 44 24 e8          	mov    %eax,-0x18(%rsp)
  4017c7:	8b 44 24 e4          	mov    -0x1c(%rsp),%eax
  4017cb:	69 c0 80 90 00 00    	imul   $0x9080,%eax,%eax
  4017d1:	89 44 24 e4          	mov    %eax,-0x1c(%rsp)
  4017d5:	8b 44 24 d0          	mov    -0x30(%rsp),%eax
  4017d9:	69 c0 e9 7e 00 00    	imul   $0x7ee9,%eax,%eax
  4017df:	89 44 24 d0          	mov    %eax,-0x30(%rsp)
  4017e3:	8b 44 24 ec          	mov    -0x14(%rsp),%eax
  4017e7:	69 c0 2a 9d 00 00    	imul   $0x9d2a,%eax,%eax
  4017ed:	89 44 24 ec          	mov    %eax,-0x14(%rsp)
  4017f1:	8b 44 24 d8          	mov    -0x28(%rsp),%eax
  4017f5:	69 c0 fd 9e 00 00    	imul   $0x9efd,%eax,%eax
  4017fb:	89 44 24 d8          	mov    %eax,-0x28(%rsp)
  4017ff:	8b 44 24 e8          	mov    -0x18(%rsp),%eax
  401803:	69 c0 a0 15 00 00    	imul   $0x15a0,%eax,%eax
  401809:	89 44 24 e8          	mov    %eax,-0x18(%rsp)
  40180d:	8b 44 24 e8          	mov    -0x18(%rsp),%eax
  401811:	69 c0 70 81 00 00    	imul   $0x8170,%eax,%eax
  401817:	89 44 24 e8          	mov    %eax,-0x18(%rsp)
  40181b:	8b 44 24 d0          	mov    -0x30(%rsp),%eax
  40181f:	69 c0 09 d2 00 00    	imul   $0xd209,%eax,%eax
  401825:	89 44 24 d0          	mov    %eax,-0x30(%rsp)
  401829:	8b 44 24 d0          	mov    -0x30(%rsp),%eax
  40182d:	69 c0 40 96 00 00    	imul   $0x9640,%eax,%eax
  401833:	89 44 24 d0          	mov    %eax,-0x30(%rsp)
  401837:	8b 44 24 e0          	mov    -0x20(%rsp),%eax
  40183b:	69 c0 40 e6 00 00    	imul   $0xe640,%eax,%eax
  401841:	89 44 24 e0          	mov    %eax,-0x20(%rsp)
  401845:	8b 44 24 dc          	mov    -0x24(%rsp),%eax
  401849:	69 c0 b1 de 00 00    	imul   $0xdeb1,%eax,%eax
  40184f:	89 44 24 dc          	mov    %eax,-0x24(%rsp)
  401853:	8b 44 24 ec          	mov    -0x14(%rsp),%eax
  401857:	69 c0 c3 44 00 00    	imul   $0x44c3,%eax,%eax
  40185d:	89 44 24 ec          	mov    %eax,-0x14(%rsp)
  401861:	8b 44 24 e8          	mov    -0x18(%rsp),%eax
  401865:	69 c0 cc d1 00 00    	imul   $0xd1cc,%eax,%eax
  40186b:	89 44 24 e8          	mov    %eax,-0x18(%rsp)
  40186f:	8b 44 24 d0          	mov    -0x30(%rsp),%eax
  401873:	69 c0 3c a4 00 00    	imul   $0xa43c,%eax,%eax
  401879:	89 44 24 d0          	mov    %eax,-0x30(%rsp)
  40187d:	8b 44 24 f4          	mov    -0xc(%rsp),%eax
  401881:	69 c0 99 a6 00 00    	imul   $0xa699,%eax,%eax
  401887:	89 44 24 f4          	mov    %eax,-0xc(%rsp)
  40188b:	8b 44 24 d8          	mov    -0x28(%rsp),%eax
  40188f:	69 c0 24 0f 00 00    	imul   $0xf24,%eax,%eax
  401895:	89 44 24 d8          	mov    %eax,-0x28(%rsp)
  401899:	8b 44 24 e0          	mov    -0x20(%rsp),%eax
  40189d:	69 c0 37 cd 00 00    	imul   $0xcd37,%eax,%eax
  4018a3:	89 44 24 e0          	mov    %eax,-0x20(%rsp)
  4018a7:	8b 44 24 ec          	mov    -0x14(%rsp),%eax
  4018ab:	69 c0 bb a4 00 00    	imul   $0xa4bb,%eax,%eax
  4018b1:	89 44 24 ec          	mov    %eax,-0x14(%rsp)
  4018b5:	8b 44 24 dc          	mov    -0x24(%rsp),%eax
  4018b9:	69 c0 58 ca 00 00    	imul   $0xca58,%eax,%eax
  4018bf:	89 44 24 dc          	mov    %eax,-0x24(%rsp)
  4018c3:	8b 44 24 f0          	mov    -0x10(%rsp),%eax
  4018c7:	69 c0 da 22 00 00    	imul   $0x22da,%eax,%eax
  4018cd:	89 44 24 f0          	mov    %eax,-0x10(%rsp)
  4018d1:	8b 44 24 f0          	mov    -0x10(%rsp),%eax
  4018d5:	69 c0 b8 f2 00 00    	imul   $0xf2b8,%eax,%eax
  4018db:	89 44 24 f0          	mov    %eax,-0x10(%rsp)
  4018df:	8b 44 24 e8          	mov    -0x18(%rsp),%eax
  4018e3:	69 c0 5c 97 00 00    	imul   $0x975c,%eax,%eax
  4018e9:	89 44 24 e8          	mov    %eax,-0x18(%rsp)
  4018ed:	8b 44 24 e4          	mov    -0x1c(%rsp),%eax
  4018f1:	69 c0 3d c8 00 00    	imul   $0xc83d,%eax,%eax
  4018f7:	89 44 24 e4          	mov    %eax,-0x1c(%rsp)
  4018fb:	8b 44 24 e4          	mov    -0x1c(%rsp),%eax
  4018ff:	69 c0 46 27 00 00    	imul   $0x2746,%eax,%eax
  401905:	89 44 24 e4          	mov    %eax,-0x1c(%rsp)
  401909:	8b 44 24 e0          	mov    -0x20(%rsp),%eax
  40190d:	69 c0 bc 03 00 00    	imul   $0x3bc,%eax,%eax
  401913:	89 44 24 e0          	mov    %eax,-0x20(%rsp)
  401917:	8b 44 24 f4          	mov    -0xc(%rsp),%eax
  40191b:	69 c0 f8 18 00 00    	imul   $0x18f8,%eax,%eax
  401921:	89 44 24 f4          	mov    %eax,-0xc(%rsp)
  401925:	8b 44 24 dc          	mov    -0x24(%rsp),%eax
  401929:	69 c0 fd 66 00 00    	imul   $0x66fd,%eax,%eax
  40192f:	89 44 24 dc          	mov    %eax,-0x24(%rsp)
  401933:	8b 44 24 e0          	mov    -0x20(%rsp),%eax
  401937:	69 c0 18 ce 00 00    	imul   $0xce18,%eax,%eax
  40193d:	89 44 24 e0          	mov    %eax,-0x20(%rsp)
  401941:	8b 44 24 ec          	mov    -0x14(%rsp),%eax
  401945:	69 c0 59 7b 00 00    	imul   $0x7b59,%eax,%eax
  40194b:	89 44 24 ec          	mov    %eax,-0x14(%rsp)
  40194f:	8b 44 24 e0          	mov    -0x20(%rsp),%eax
  401953:	69 c0 ca af 00 00    	imul   $0xafca,%eax,%eax
  401959:	89 44 24 e0          	mov    %eax,-0x20(%rsp)
  40195d:	8b 44 24 d0          	mov    -0x30(%rsp),%eax
  401961:	69 c0 76 a7 00 00    	imul   $0xa776,%eax,%eax
  401967:	89 44 24 d0          	mov    %eax,-0x30(%rsp)
  40196b:	8b 44 24 dc          	mov    -0x24(%rsp),%eax
  40196f:	69 c0 ae db 00 00    	imul   $0xdbae,%eax,%eax
  401975:	89 44 24 dc          	mov    %eax,-0x24(%rsp)
  401979:	8b 44 24 e4          	mov    -0x1c(%rsp),%eax
  40197d:	69 c0 93 5e 00 00    	imul   $0x5e93,%eax,%eax
  401983:	89 44 24 e4          	mov    %eax,-0x1c(%rsp)
  401987:	8b 44 24 d4          	mov    -0x2c(%rsp),%eax
  40198b:	69 c0 ce c0 00 00    	imul   $0xc0ce,%eax,%eax
  401991:	89 44 24 d4          	mov    %eax,-0x2c(%rsp)
  401995:	8b 44 24 e8          	mov    -0x18(%rsp),%eax
  401999:	69 c0 4f c2 00 00    	imul   $0xc24f,%eax,%eax
  40199f:	89 44 24 e8          	mov    %eax,-0x18(%rsp)
  4019a3:	8b 44 24 d4          	mov    -0x2c(%rsp),%eax
  4019a7:	69 c0 41 92 00 00    	imul   $0x9241,%eax,%eax
  4019ad:	89 44 24 d4          	mov    %eax,-0x2c(%rsp)
  4019b1:	8b 44 24 f0          	mov    -0x10(%rsp),%eax
  4019b5:	69 c0 23 1c 00 00    	imul   $0x1c23,%eax,%eax
  4019bb:	89 44 24 f0          	mov    %eax,-0x10(%rsp)
  4019bf:	8b 44 24 d8          	mov    -0x28(%rsp),%eax
  4019c3:	69 c0 2f 29 00 00    	imul   $0x292f,%eax,%eax
  4019c9:	89 44 24 d8          	mov    %eax,-0x28(%rsp)
  4019cd:	8b 44 24 ec          	mov    -0x14(%rsp),%eax
  4019d1:	69 c0 03 93 00 00    	imul   $0x9303,%eax,%eax
  4019d7:	89 44 24 ec          	mov    %eax,-0x14(%rsp)
  4019db:	8b 44 24 dc          	mov    -0x24(%rsp),%eax
  4019df:	69 c0 dd 42 00 00    	imul   $0x42dd,%eax,%eax
  4019e5:	89 44 24 dc          	mov    %eax,-0x24(%rsp)
  4019e9:	8b 44 24 d4          	mov    -0x2c(%rsp),%eax
  4019ed:	69 c0 fc 5d 00 00    	imul   $0x5dfc,%eax,%eax
  4019f3:	89 44 24 d4          	mov    %eax,-0x2c(%rsp)
  4019f7:	8b 44 24 dc          	mov    -0x24(%rsp),%eax
  4019fb:	69 c0 2d 79 00 00    	imul   $0x792d,%eax,%eax
  401a01:	89 44 24 dc          	mov    %eax,-0x24(%rsp)
  401a05:	8b 44 24 d4          	mov    -0x2c(%rsp),%eax
  401a09:	69 c0 90 b9 00 00    	imul   $0xb990,%eax,%eax
  401a0f:	89 44 24 d4          	mov    %eax,-0x2c(%rsp)
  401a13:	8b 44 24 ec          	mov    -0x14(%rsp),%eax
  401a17:	69 c0 c3 fd 00 00    	imul   $0xfdc3,%eax,%eax
  401a1d:	89 44 24 ec          	mov    %eax,-0x14(%rsp)
  401a21:	8b 44 24 e8          	mov    -0x18(%rsp),%eax
  401a25:	69 c0 9a b9 00 00    	imul   $0xb99a,%eax,%eax
  401a2b:	89 44 24 e8          	mov    %eax,-0x18(%rsp)
  401a2f:	8b 44 24 f0          	mov    -0x10(%rsp),%eax
  401a33:	69 c0 dc 56 00 00    	imul   $0x56dc,%eax,%eax
  401a39:	89 44 24 f0          	mov    %eax,-0x10(%rsp)
  401a3d:	8b 44 24 d0          	mov    -0x30(%rsp),%eax
  401a41:	69 c0 7c 6c 00 00    	imul   $0x6c7c,%eax,%eax
  401a47:	89 44 24 d0          	mov    %eax,-0x30(%rsp)
  401a4b:	8b 44 24 e4          	mov    -0x1c(%rsp),%eax
  401a4f:	69 c0 be d5 00 00    	imul   $0xd5be,%eax,%eax
  401a55:	89 44 24 e4          	mov    %eax,-0x1c(%rsp)
  401a59:	8b 44 24 e0          	mov    -0x20(%rsp),%eax
  401a5d:	69 c0 f4 b2 00 00    	imul   $0xb2f4,%eax,%eax
  401a63:	89 44 24 e0          	mov    %eax,-0x20(%rsp)
  401a67:	8b 44 24 d4          	mov    -0x2c(%rsp),%eax
  401a6b:	69 c0 fb f3 00 00    	imul   $0xf3fb,%eax,%eax
  401a71:	89 44 24 d4          	mov    %eax,-0x2c(%rsp)
  401a75:	8b 44 24 d0          	mov    -0x30(%rsp),%eax
  401a79:	69 c0 35 7a 00 00    	imul   $0x7a35,%eax,%eax
  401a7f:	89 44 24 d0          	mov    %eax,-0x30(%rsp)
  401a83:	8b 44 24 f0          	mov    -0x10(%rsp),%eax
  401a87:	69 c0 4a 2a 00 00    	imul   $0x2a4a,%eax,%eax
  401a8d:	89 44 24 f0          	mov    %eax,-0x10(%rsp)
  401a91:	8b 44 24 dc          	mov    -0x24(%rsp),%eax
  401a95:	69 c0 da af 00 00    	imul   $0xafda,%eax,%eax
  401a9b:	89 44 24 dc          	mov    %eax,-0x24(%rsp)
  401a9f:	8b 44 24 e8          	mov    -0x18(%rsp),%eax
  401aa3:	69 c0 b8 7a 00 00    	imul   $0x7ab8,%eax,%eax
  401aa9:	89 44 24 e8          	mov    %eax,-0x18(%rsp)
  401aad:	ba 00 00 00 00       	mov    $0x0,%edx
  401ab2:	b8 00 00 00 00       	mov    $0x0,%eax
  401ab7:	eb 0b                	jmp    401ac4 <scramble+0x432>
  401ab9:	89 d1                	mov    %edx,%ecx
  401abb:	8b 4c 8c d0          	mov    -0x30(%rsp,%rcx,4),%ecx
  401abf:	01 c8                	add    %ecx,%eax
  401ac1:	83 c2 01             	add    $0x1,%edx
  401ac4:	83 fa 09             	cmp    $0x9,%edx
  401ac7:	76 f0                	jbe    401ab9 <scramble+0x427>
  401ac9:	f3 c3                	repz retq 

0000000000401acb <getbuf>:
  401acb:	48 83 ec 28          	sub    $0x28,%rsp
  401acf:	48 89 e7             	mov    %rsp,%rdi
  401ad2:	e8 94 03 00 00       	callq  401e6b <Gets>
  401ad7:	b8 01 00 00 00       	mov    $0x1,%eax
  401adc:	48 83 c4 28          	add    $0x28,%rsp
  401ae0:	c3                   	retq   

0000000000401ae1 <touch1>:
  401ae1:	48 83 ec 08          	sub    $0x8,%rsp
  401ae5:	c7 05 2d 5a 00 00 01 	movl   $0x1,0x5a2d(%rip)        # 40751c <vlevel>
  401aec:	00 00 00 
  401aef:	48 8d 3d b4 27 00 00 	lea    0x27b4(%rip),%rdi        # 4042aa <_IO_stdin_used+0x2aa>
  401af6:	e8 85 f5 ff ff       	callq  401080 <puts@plt>
  401afb:	bf 01 00 00 00       	mov    $0x1,%edi
  401b00:	e8 ab 05 00 00       	callq  4020b0 <validate>
  401b05:	bf 00 00 00 00       	mov    $0x0,%edi
  401b0a:	e8 b1 f6 ff ff       	callq  4011c0 <exit@plt>

0000000000401b0f <touch2>:
  401b0f:	48 83 ec 08          	sub    $0x8,%rsp
  401b13:	89 fa                	mov    %edi,%edx
  401b15:	c7 05 fd 59 00 00 02 	movl   $0x2,0x59fd(%rip)        # 40751c <vlevel>
  401b1c:	00 00 00 
  401b1f:	39 3d ff 59 00 00    	cmp    %edi,0x59ff(%rip)        # 407524 <cookie>
  401b25:	74 2a                	je     401b51 <touch2+0x42>
  401b27:	48 8d 35 ca 27 00 00 	lea    0x27ca(%rip),%rsi        # 4042f8 <_IO_stdin_used+0x2f8>
  401b2e:	bf 01 00 00 00       	mov    $0x1,%edi
  401b33:	b8 00 00 00 00       	mov    $0x0,%eax
  401b38:	e8 33 f6 ff ff       	callq  401170 <__printf_chk@plt>
  401b3d:	bf 02 00 00 00       	mov    $0x2,%edi
  401b42:	e8 39 06 00 00       	callq  402180 <fail>
  401b47:	bf 00 00 00 00       	mov    $0x0,%edi
  401b4c:	e8 6f f6 ff ff       	callq  4011c0 <exit@plt>
  401b51:	48 8d 35 78 27 00 00 	lea    0x2778(%rip),%rsi        # 4042d0 <_IO_stdin_used+0x2d0>
  401b58:	bf 01 00 00 00       	mov    $0x1,%edi
  401b5d:	b8 00 00 00 00       	mov    $0x0,%eax
  401b62:	e8 09 f6 ff ff       	callq  401170 <__printf_chk@plt>
  401b67:	bf 02 00 00 00       	mov    $0x2,%edi
  401b6c:	e8 3f 05 00 00       	callq  4020b0 <validate>
  401b71:	eb d4                	jmp    401b47 <touch2+0x38>

0000000000401b73 <hexmatch>:
  401b73:	41 54                	push   %r12
  401b75:	55                   	push   %rbp
  401b76:	53                   	push   %rbx
  401b77:	48 83 ec 70          	sub    $0x70,%rsp
  401b7b:	89 fd                	mov    %edi,%ebp
  401b7d:	48 89 f3             	mov    %rsi,%rbx
  401b80:	e8 bb f5 ff ff       	callq  401140 <random@plt>
  401b85:	48 89 c1             	mov    %rax,%rcx
  401b88:	48 ba 0b d7 a3 70 3d 	movabs $0xa3d70a3d70a3d70b,%rdx
  401b8f:	0a d7 a3 
  401b92:	48 f7 ea             	imul   %rdx
  401b95:	48 01 ca             	add    %rcx,%rdx
  401b98:	48 c1 fa 06          	sar    $0x6,%rdx
  401b9c:	48 89 c8             	mov    %rcx,%rax
  401b9f:	48 c1 f8 3f          	sar    $0x3f,%rax
  401ba3:	48 29 c2             	sub    %rax,%rdx
  401ba6:	48 8d 04 92          	lea    (%rdx,%rdx,4),%rax
  401baa:	48 8d 14 80          	lea    (%rax,%rax,4),%rdx
  401bae:	48 8d 04 95 00 00 00 	lea    0x0(,%rdx,4),%rax
  401bb5:	00 
  401bb6:	48 29 c1             	sub    %rax,%rcx
  401bb9:	4c 8d 24 0c          	lea    (%rsp,%rcx,1),%r12
  401bbd:	41 89 e8             	mov    %ebp,%r8d
  401bc0:	48 8d 0d 00 27 00 00 	lea    0x2700(%rip),%rcx        # 4042c7 <_IO_stdin_used+0x2c7>
  401bc7:	48 c7 c2 ff ff ff ff 	mov    $0xffffffffffffffff,%rdx
  401bce:	be 01 00 00 00       	mov    $0x1,%esi
  401bd3:	4c 89 e7             	mov    %r12,%rdi
  401bd6:	b8 00 00 00 00       	mov    $0x0,%eax
  401bdb:	e8 20 f6 ff ff       	callq  401200 <__sprintf_chk@plt>
  401be0:	ba 09 00 00 00       	mov    $0x9,%edx
  401be5:	4c 89 e6             	mov    %r12,%rsi
  401be8:	48 89 df             	mov    %rbx,%rdi
  401beb:	e8 60 f4 ff ff       	callq  401050 <strncmp@plt>
  401bf0:	85 c0                	test   %eax,%eax
  401bf2:	0f 94 c0             	sete   %al
  401bf5:	0f b6 c0             	movzbl %al,%eax
  401bf8:	48 83 c4 70          	add    $0x70,%rsp
  401bfc:	5b                   	pop    %rbx
  401bfd:	5d                   	pop    %rbp
  401bfe:	41 5c                	pop    %r12
  401c00:	c3                   	retq   

0000000000401c01 <touch3>:
  401c01:	53                   	push   %rbx
  401c02:	48 89 fb             	mov    %rdi,%rbx
  401c05:	c7 05 0d 59 00 00 03 	movl   $0x3,0x590d(%rip)        # 40751c <vlevel>
  401c0c:	00 00 00 
  401c0f:	48 89 fe             	mov    %rdi,%rsi
  401c12:	8b 3d 0c 59 00 00    	mov    0x590c(%rip),%edi        # 407524 <cookie>
  401c18:	e8 56 ff ff ff       	callq  401b73 <hexmatch>
  401c1d:	85 c0                	test   %eax,%eax
  401c1f:	74 2d                	je     401c4e <touch3+0x4d>
  401c21:	48 89 da             	mov    %rbx,%rdx
  401c24:	48 8d 35 f5 26 00 00 	lea    0x26f5(%rip),%rsi        # 404320 <_IO_stdin_used+0x320>
  401c2b:	bf 01 00 00 00       	mov    $0x1,%edi
  401c30:	b8 00 00 00 00       	mov    $0x0,%eax
  401c35:	e8 36 f5 ff ff       	callq  401170 <__printf_chk@plt>
  401c3a:	bf 03 00 00 00       	mov    $0x3,%edi
  401c3f:	e8 6c 04 00 00       	callq  4020b0 <validate>
  401c44:	bf 00 00 00 00       	mov    $0x0,%edi
  401c49:	e8 72 f5 ff ff       	callq  4011c0 <exit@plt>
  401c4e:	48 89 da             	mov    %rbx,%rdx
  401c51:	48 8d 35 f0 26 00 00 	lea    0x26f0(%rip),%rsi        # 404348 <_IO_stdin_used+0x348>
  401c58:	bf 01 00 00 00       	mov    $0x1,%edi
  401c5d:	b8 00 00 00 00       	mov    $0x0,%eax
  401c62:	e8 09 f5 ff ff       	callq  401170 <__printf_chk@plt>
  401c67:	bf 03 00 00 00       	mov    $0x3,%edi
  401c6c:	e8 0f 05 00 00       	callq  402180 <fail>
  401c71:	eb d1                	jmp    401c44 <touch3+0x43>

0000000000401c73 <test>:
  401c73:	48 83 ec 08          	sub    $0x8,%rsp
  401c77:	b8 00 00 00 00       	mov    $0x0,%eax
  401c7c:	e8 4a fe ff ff       	callq  401acb <getbuf>
  401c81:	89 c2                	mov    %eax,%edx
  401c83:	48 8d 35 e6 26 00 00 	lea    0x26e6(%rip),%rsi        # 404370 <_IO_stdin_used+0x370>
  401c8a:	bf 01 00 00 00       	mov    $0x1,%edi
  401c8f:	b8 00 00 00 00       	mov    $0x0,%eax
  401c94:	e8 d7 f4 ff ff       	callq  401170 <__printf_chk@plt>
  401c99:	48 83 c4 08          	add    $0x8,%rsp
  401c9d:	c3                   	retq   

0000000000401c9e <start_farm>:
  401c9e:	b8 01 00 00 00       	mov    $0x1,%eax
  401ca3:	c3                   	retq   

0000000000401ca4 <addval_202>:
  401ca4:	8d 87 4c 48 89 c7    	lea    -0x3876b7b4(%rdi),%eax
  401caa:	c3                   	retq   

0000000000401cab <setval_177>:
  401cab:	c7 07 d8 90 90 90    	movl   $0x909090d8,(%rdi)
  401cb1:	c3                   	retq   

0000000000401cb2 <setval_321>:
  401cb2:	c7 07 68 89 c7 90    	movl   $0x90c78968,(%rdi)
  401cb8:	c3                   	retq   

0000000000401cb9 <getval_198>:
  401cb9:	b8 5b 14 78 90       	mov    $0x9078145b,%eax
  401cbe:	c3                   	retq   

0000000000401cbf <setval_336>:
  401cbf:	c7 07 a1 58 c3 0a    	movl   $0xac358a1,(%rdi)
  401cc5:	c3                   	retq   

0000000000401cc6 <setval_266>:
  401cc6:	c7 07 48 89 c7 91    	movl   $0x91c78948,(%rdi)
  401ccc:	c3                   	retq   

0000000000401ccd <getval_275>:
  401ccd:	b8 75 48 89 c7       	mov    $0xc7894875,%eax
  401cd2:	c3                   	retq   

0000000000401cd3 <getval_209>:
  401cd3:	b8 58 90 90 c3       	mov    $0xc3909058,%eax
  401cd8:	c3                   	retq   

0000000000401cd9 <mid_farm>:
  401cd9:	b8 01 00 00 00       	mov    $0x1,%eax
  401cde:	c3                   	retq   

0000000000401cdf <add_xy>:
  401cdf:	48 8d 04 37          	lea    (%rdi,%rsi,1),%rax
  401ce3:	c3                   	retq   

0000000000401ce4 <addval_496>:
  401ce4:	8d 87 48 89 e0 90    	lea    -0x6f1f76b8(%rdi),%eax
  401cea:	c3                   	retq   

0000000000401ceb <addval_358>:
  401ceb:	8d 87 89 d6 00 d2    	lea    -0x2dff2977(%rdi),%eax
  401cf1:	c3                   	retq   

0000000000401cf2 <setval_425>:
  401cf2:	c7 07 8b c1 90 c3    	movl   $0xc390c18b,(%rdi)
  401cf8:	c3                   	retq   

0000000000401cf9 <getval_271>:
  401cf9:	b8 99 ca 90 c3       	mov    $0xc390ca99,%eax
  401cfe:	c3                   	retq   

0000000000401cff <setval_189>:
  401cff:	c7 07 89 ca 20 d2    	movl   $0xd220ca89,(%rdi)
  401d05:	c3                   	retq   

0000000000401d06 <setval_298>:
  401d06:	c7 07 89 d6 a4 c0    	movl   $0xc0a4d689,(%rdi)
  401d0c:	c3                   	retq   

0000000000401d0d <setval_315>:
  401d0d:	c7 07 89 c1 30 c9    	movl   $0xc930c189,(%rdi)
  401d13:	c3                   	retq   

0000000000401d14 <setval_378>:
  401d14:	c7 07 81 c1 08 c0    	movl   $0xc008c181,(%rdi)
  401d1a:	c3                   	retq   

0000000000401d1b <addval_359>:
  401d1b:	8d 87 8d ca 08 d2    	lea    -0x2df73573(%rdi),%eax
  401d21:	c3                   	retq   

0000000000401d22 <addval_488>:
  401d22:	8d 87 89 c1 38 c9    	lea    -0x36c73e77(%rdi),%eax
  401d28:	c3                   	retq   

0000000000401d29 <setval_142>:
  401d29:	c7 07 8b c1 38 c0    	movl   $0xc038c18b,(%rdi)
  401d2f:	c3                   	retq   

0000000000401d30 <setval_107>:
  401d30:	c7 07 09 ca 90 c3    	movl   $0xc390ca09,(%rdi)
  401d36:	c3                   	retq   

0000000000401d37 <getval_461>:
  401d37:	b8 8d d6 38 c0       	mov    $0xc038d68d,%eax
  401d3c:	c3                   	retq   

0000000000401d3d <addval_392>:
  401d3d:	8d 87 89 d6 08 c0    	lea    -0x3ff72977(%rdi),%eax
  401d43:	c3                   	retq   

0000000000401d44 <getval_241>:
  401d44:	b8 ff 8b c1 c3       	mov    $0xc3c18bff,%eax
  401d49:	c3                   	retq   

0000000000401d4a <setval_253>:
  401d4a:	c7 07 a9 d6 38 c0    	movl   $0xc038d6a9,(%rdi)
  401d50:	c3                   	retq   

0000000000401d51 <getval_348>:
  401d51:	b8 89 d6 84 d2       	mov    $0xd284d689,%eax
  401d56:	c3                   	retq   

0000000000401d57 <setval_230>:
  401d57:	c7 07 89 ca 28 d2    	movl   $0xd228ca89,(%rdi)
  401d5d:	c3                   	retq   

0000000000401d5e <getval_401>:
  401d5e:	b8 58 89 e0 90       	mov    $0x90e08958,%eax
  401d63:	c3                   	retq   

0000000000401d64 <getval_438>:
  401d64:	b8 89 ca 78 db       	mov    $0xdb78ca89,%eax
  401d69:	c3                   	retq   

0000000000401d6a <setval_251>:
  401d6a:	c7 07 48 89 e0 c7    	movl   $0xc7e08948,(%rdi)
  401d70:	c3                   	retq   

0000000000401d71 <addval_111>:
  401d71:	8d 87 c8 89 e0 90    	lea    -0x6f1f7638(%rdi),%eax
  401d77:	c3                   	retq   

0000000000401d78 <addval_294>:
  401d78:	8d 87 68 89 e0 90    	lea    -0x6f1f7698(%rdi),%eax
  401d7e:	c3                   	retq   

0000000000401d7f <setval_465>:
  401d7f:	c7 07 8d d6 08 c0    	movl   $0xc008d68d,(%rdi)
  401d85:	c3                   	retq   

0000000000401d86 <addval_180>:
  401d86:	8d 87 48 89 e0 91    	lea    -0x6e1f76b8(%rdi),%eax
  401d8c:	c3                   	retq   

0000000000401d8d <getval_386>:
  401d8d:	b8 89 ca 90 c3       	mov    $0xc390ca89,%eax
  401d92:	c3                   	retq   

0000000000401d93 <setval_480>:
  401d93:	c7 07 f4 48 89 e0    	movl   $0xe08948f4,(%rdi)
  401d99:	c3                   	retq   

0000000000401d9a <setval_426>:
  401d9a:	c7 07 81 ca 20 d2    	movl   $0xd220ca81,(%rdi)
  401da0:	c3                   	retq   

0000000000401da1 <addval_134>:
  401da1:	8d 87 88 c1 38 c9    	lea    -0x36c73e78(%rdi),%eax
  401da7:	c3                   	retq   

0000000000401da8 <setval_295>:
  401da8:	c7 07 89 c1 90 c3    	movl   $0xc390c189,(%rdi)
  401dae:	c3                   	retq   

0000000000401daf <setval_223>:
  401daf:	c7 07 89 d6 18 d2    	movl   $0xd218d689,(%rdi)
  401db5:	c3                   	retq   

0000000000401db6 <addval_167>:
  401db6:	8d 87 48 89 e0 c7    	lea    -0x381f76b8(%rdi),%eax
  401dbc:	c3                   	retq   

0000000000401dbd <end_farm>:
  401dbd:	b8 01 00 00 00       	mov    $0x1,%eax
  401dc2:	c3                   	retq   

0000000000401dc3 <save_char>:
  401dc3:	8b 05 7b 63 00 00    	mov    0x637b(%rip),%eax        # 408144 <gets_cnt>
  401dc9:	3d ff 03 00 00       	cmp    $0x3ff,%eax
  401dce:	7f 4a                	jg     401e1a <save_char+0x57>
  401dd0:	89 f9                	mov    %edi,%ecx
  401dd2:	c0 e9 04             	shr    $0x4,%cl
  401dd5:	8d 14 40             	lea    (%rax,%rax,2),%edx
  401dd8:	4c 8d 05 b1 28 00 00 	lea    0x28b1(%rip),%r8        # 404690 <trans_char>
  401ddf:	83 e1 0f             	and    $0xf,%ecx
  401de2:	45 0f b6 0c 08       	movzbl (%r8,%rcx,1),%r9d
  401de7:	48 8d 0d 52 57 00 00 	lea    0x5752(%rip),%rcx        # 407540 <gets_buf>
  401dee:	48 63 f2             	movslq %edx,%rsi
  401df1:	44 88 0c 31          	mov    %r9b,(%rcx,%rsi,1)
  401df5:	8d 72 01             	lea    0x1(%rdx),%esi
  401df8:	83 e7 0f             	and    $0xf,%edi
  401dfb:	41 0f b6 3c 38       	movzbl (%r8,%rdi,1),%edi
  401e00:	48 63 f6             	movslq %esi,%rsi
  401e03:	40 88 3c 31          	mov    %dil,(%rcx,%rsi,1)
  401e07:	83 c2 02             	add    $0x2,%edx
  401e0a:	48 63 d2             	movslq %edx,%rdx
  401e0d:	c6 04 11 20          	movb   $0x20,(%rcx,%rdx,1)
  401e11:	83 c0 01             	add    $0x1,%eax
  401e14:	89 05 2a 63 00 00    	mov    %eax,0x632a(%rip)        # 408144 <gets_cnt>
  401e1a:	f3 c3                	repz retq 

0000000000401e1c <save_term>:
  401e1c:	8b 05 22 63 00 00    	mov    0x6322(%rip),%eax        # 408144 <gets_cnt>
  401e22:	8d 04 40             	lea    (%rax,%rax,2),%eax
  401e25:	48 98                	cltq   
  401e27:	48 8d 15 12 57 00 00 	lea    0x5712(%rip),%rdx        # 407540 <gets_buf>
  401e2e:	c6 04 02 00          	movb   $0x0,(%rdx,%rax,1)
  401e32:	c3                   	retq   

0000000000401e33 <check_fail>:
  401e33:	48 83 ec 08          	sub    $0x8,%rsp
  401e37:	0f be 15 0a 63 00 00 	movsbl 0x630a(%rip),%edx        # 408148 <target_prefix>
  401e3e:	4c 8d 05 fb 56 00 00 	lea    0x56fb(%rip),%r8        # 407540 <gets_buf>
  401e45:	8b 0d cd 56 00 00    	mov    0x56cd(%rip),%ecx        # 407518 <check_level>
  401e4b:	48 8d 35 41 25 00 00 	lea    0x2541(%rip),%rsi        # 404393 <_IO_stdin_used+0x393>
  401e52:	bf 01 00 00 00       	mov    $0x1,%edi
  401e57:	b8 00 00 00 00       	mov    $0x0,%eax
  401e5c:	e8 0f f3 ff ff       	callq  401170 <__printf_chk@plt>
  401e61:	bf 01 00 00 00       	mov    $0x1,%edi
  401e66:	e8 55 f3 ff ff       	callq  4011c0 <exit@plt>

0000000000401e6b <Gets>:
  401e6b:	41 54                	push   %r12
  401e6d:	55                   	push   %rbp
  401e6e:	53                   	push   %rbx
  401e6f:	49 89 fc             	mov    %rdi,%r12
  401e72:	c7 05 c8 62 00 00 00 	movl   $0x0,0x62c8(%rip)        # 408144 <gets_cnt>
  401e79:	00 00 00 
  401e7c:	48 89 fb             	mov    %rdi,%rbx
  401e7f:	eb 11                	jmp    401e92 <Gets+0x27>
  401e81:	48 8d 6b 01          	lea    0x1(%rbx),%rbp
  401e85:	88 03                	mov    %al,(%rbx)
  401e87:	0f b6 f8             	movzbl %al,%edi
  401e8a:	e8 34 ff ff ff       	callq  401dc3 <save_char>
  401e8f:	48 89 eb             	mov    %rbp,%rbx
  401e92:	48 8b 3d 77 56 00 00 	mov    0x5677(%rip),%rdi        # 407510 <infile>
  401e99:	e8 52 f3 ff ff       	callq  4011f0 <getc@plt>
  401e9e:	83 f8 ff             	cmp    $0xffffffff,%eax
  401ea1:	74 05                	je     401ea8 <Gets+0x3d>
  401ea3:	83 f8 0a             	cmp    $0xa,%eax
  401ea6:	75 d9                	jne    401e81 <Gets+0x16>
  401ea8:	c6 03 00             	movb   $0x0,(%rbx)
  401eab:	b8 00 00 00 00       	mov    $0x0,%eax
  401eb0:	e8 67 ff ff ff       	callq  401e1c <save_term>
  401eb5:	4c 89 e0             	mov    %r12,%rax
  401eb8:	5b                   	pop    %rbx
  401eb9:	5d                   	pop    %rbp
  401eba:	41 5c                	pop    %r12
  401ebc:	c3                   	retq   

0000000000401ebd <notify_server>:
  401ebd:	83 3d 64 56 00 00 00 	cmpl   $0x0,0x5664(%rip)        # 407528 <is_checker>
  401ec4:	0f 85 e4 01 00 00    	jne    4020ae <notify_server+0x1f1>
  401eca:	55                   	push   %rbp
  401ecb:	53                   	push   %rbx
  401ecc:	48 81 ec 08 40 00 00 	sub    $0x4008,%rsp
  401ed3:	89 fb                	mov    %edi,%ebx
  401ed5:	8b 05 69 62 00 00    	mov    0x6269(%rip),%eax        # 408144 <gets_cnt>
  401edb:	83 c0 64             	add    $0x64,%eax
  401ede:	3d 00 20 00 00       	cmp    $0x2000,%eax
  401ee3:	0f 8f cb 00 00 00    	jg     401fb4 <notify_server+0xf7>
  401ee9:	0f be 05 58 62 00 00 	movsbl 0x6258(%rip),%eax        # 408148 <target_prefix>
  401ef0:	83 3d 91 55 00 00 00 	cmpl   $0x0,0x5591(%rip)        # 407488 <notify>
  401ef7:	0f 84 d7 00 00 00    	je     401fd4 <notify_server+0x117>
  401efd:	8b 15 1d 56 00 00    	mov    0x561d(%rip),%edx        # 407520 <authkey>
  401f03:	85 db                	test   %ebx,%ebx
  401f05:	0f 84 d3 00 00 00    	je     401fde <notify_server+0x121>
  401f0b:	48 8d 2d 97 24 00 00 	lea    0x2497(%rip),%rbp        # 4043a9 <_IO_stdin_used+0x3a9>
  401f12:	48 8d bc 24 00 20 00 	lea    0x2000(%rsp),%rdi
  401f19:	00 
  401f1a:	48 8d 0d 1f 56 00 00 	lea    0x561f(%rip),%rcx        # 407540 <gets_buf>
  401f21:	51                   	push   %rcx
  401f22:	56                   	push   %rsi
  401f23:	50                   	push   %rax
  401f24:	52                   	push   %rdx
  401f25:	49 89 e9             	mov    %rbp,%r9
  401f28:	44 8b 05 01 52 00 00 	mov    0x5201(%rip),%r8d        # 407130 <target_id>
  401f2f:	48 8d 0d 7d 24 00 00 	lea    0x247d(%rip),%rcx        # 4043b3 <_IO_stdin_used+0x3b3>
  401f36:	ba 00 20 00 00       	mov    $0x2000,%edx
  401f3b:	be 01 00 00 00       	mov    $0x1,%esi
  401f40:	b8 00 00 00 00       	mov    $0x0,%eax
  401f45:	e8 b6 f2 ff ff       	callq  401200 <__sprintf_chk@plt>
  401f4a:	48 83 c4 20          	add    $0x20,%rsp
  401f4e:	83 3d 33 55 00 00 00 	cmpl   $0x0,0x5533(%rip)        # 407488 <notify>
  401f55:	0f 84 c0 00 00 00    	je     40201b <notify_server+0x15e>
  401f5b:	85 db                	test   %ebx,%ebx
  401f5d:	0f 84 aa 00 00 00    	je     40200d <notify_server+0x150>
  401f63:	48 8d 8c 24 00 20 00 	lea    0x2000(%rsp),%rcx
  401f6a:	00 
  401f6b:	49 89 e1             	mov    %rsp,%r9
  401f6e:	41 b8 00 00 00 00    	mov    $0x0,%r8d
  401f74:	48 8b 15 cd 51 00 00 	mov    0x51cd(%rip),%rdx        # 407148 <lab>
  401f7b:	48 8b 35 ce 51 00 00 	mov    0x51ce(%rip),%rsi        # 407150 <course>
  401f82:	48 8b 3d b7 51 00 00 	mov    0x51b7(%rip),%rdi        # 407140 <user_id>
  401f89:	e8 f9 10 00 00       	callq  403087 <driver_post>
  401f8e:	85 c0                	test   %eax,%eax
  401f90:	78 58                	js     401fea <notify_server+0x12d>
  401f92:	48 8d 3d 5f 25 00 00 	lea    0x255f(%rip),%rdi        # 4044f8 <_IO_stdin_used+0x4f8>
  401f99:	e8 e2 f0 ff ff       	callq  401080 <puts@plt>
  401f9e:	48 8d 3d 36 24 00 00 	lea    0x2436(%rip),%rdi        # 4043db <_IO_stdin_used+0x3db>
  401fa5:	e8 d6 f0 ff ff       	callq  401080 <puts@plt>
  401faa:	48 81 c4 08 40 00 00 	add    $0x4008,%rsp
  401fb1:	5b                   	pop    %rbx
  401fb2:	5d                   	pop    %rbp
  401fb3:	c3                   	retq   
  401fb4:	48 8d 35 0d 25 00 00 	lea    0x250d(%rip),%rsi        # 4044c8 <_IO_stdin_used+0x4c8>
  401fbb:	bf 01 00 00 00       	mov    $0x1,%edi
  401fc0:	b8 00 00 00 00       	mov    $0x0,%eax
  401fc5:	e8 a6 f1 ff ff       	callq  401170 <__printf_chk@plt>
  401fca:	bf 01 00 00 00       	mov    $0x1,%edi
  401fcf:	e8 ec f1 ff ff       	callq  4011c0 <exit@plt>
  401fd4:	ba ff ff ff ff       	mov    $0xffffffff,%edx
  401fd9:	e9 25 ff ff ff       	jmpq   401f03 <notify_server+0x46>
  401fde:	48 8d 2d c9 23 00 00 	lea    0x23c9(%rip),%rbp        # 4043ae <_IO_stdin_used+0x3ae>
  401fe5:	e9 28 ff ff ff       	jmpq   401f12 <notify_server+0x55>
  401fea:	48 89 e2             	mov    %rsp,%rdx
  401fed:	48 8d 35 db 23 00 00 	lea    0x23db(%rip),%rsi        # 4043cf <_IO_stdin_used+0x3cf>
  401ff4:	bf 01 00 00 00       	mov    $0x1,%edi
  401ff9:	b8 00 00 00 00       	mov    $0x0,%eax
  401ffe:	e8 6d f1 ff ff       	callq  401170 <__printf_chk@plt>
  402003:	bf 01 00 00 00       	mov    $0x1,%edi
  402008:	e8 b3 f1 ff ff       	callq  4011c0 <exit@plt>
  40200d:	48 8d 3d d1 23 00 00 	lea    0x23d1(%rip),%rdi        # 4043e5 <_IO_stdin_used+0x3e5>
  402014:	e8 67 f0 ff ff       	callq  401080 <puts@plt>
  402019:	eb 8f                	jmp    401faa <notify_server+0xed>
  40201b:	48 89 ea             	mov    %rbp,%rdx
  40201e:	48 8d 35 0b 25 00 00 	lea    0x250b(%rip),%rsi        # 404530 <_IO_stdin_used+0x530>
  402025:	bf 01 00 00 00       	mov    $0x1,%edi
  40202a:	b8 00 00 00 00       	mov    $0x0,%eax
  40202f:	e8 3c f1 ff ff       	callq  401170 <__printf_chk@plt>
  402034:	48 8b 15 05 51 00 00 	mov    0x5105(%rip),%rdx        # 407140 <user_id>
  40203b:	48 8d 35 aa 23 00 00 	lea    0x23aa(%rip),%rsi        # 4043ec <_IO_stdin_used+0x3ec>
  402042:	bf 01 00 00 00       	mov    $0x1,%edi
  402047:	b8 00 00 00 00       	mov    $0x0,%eax
  40204c:	e8 1f f1 ff ff       	callq  401170 <__printf_chk@plt>
  402051:	48 8b 15 f8 50 00 00 	mov    0x50f8(%rip),%rdx        # 407150 <course>
  402058:	48 8d 35 9a 23 00 00 	lea    0x239a(%rip),%rsi        # 4043f9 <_IO_stdin_used+0x3f9>
  40205f:	bf 01 00 00 00       	mov    $0x1,%edi
  402064:	b8 00 00 00 00       	mov    $0x0,%eax
  402069:	e8 02 f1 ff ff       	callq  401170 <__printf_chk@plt>
  40206e:	48 8b 15 d3 50 00 00 	mov    0x50d3(%rip),%rdx        # 407148 <lab>
  402075:	48 8d 35 89 23 00 00 	lea    0x2389(%rip),%rsi        # 404405 <_IO_stdin_used+0x405>
  40207c:	bf 01 00 00 00       	mov    $0x1,%edi
  402081:	b8 00 00 00 00       	mov    $0x0,%eax
  402086:	e8 e5 f0 ff ff       	callq  401170 <__printf_chk@plt>
  40208b:	48 8d 94 24 00 20 00 	lea    0x2000(%rsp),%rdx
  402092:	00 
  402093:	48 8d 35 74 23 00 00 	lea    0x2374(%rip),%rsi        # 40440e <_IO_stdin_used+0x40e>
  40209a:	bf 01 00 00 00       	mov    $0x1,%edi
  40209f:	b8 00 00 00 00       	mov    $0x0,%eax
  4020a4:	e8 c7 f0 ff ff       	callq  401170 <__printf_chk@plt>
  4020a9:	e9 fc fe ff ff       	jmpq   401faa <notify_server+0xed>
  4020ae:	f3 c3                	repz retq 

00000000004020b0 <validate>:
  4020b0:	53                   	push   %rbx
  4020b1:	89 fb                	mov    %edi,%ebx
  4020b3:	83 3d 6e 54 00 00 00 	cmpl   $0x0,0x546e(%rip)        # 407528 <is_checker>
  4020ba:	74 72                	je     40212e <validate+0x7e>
  4020bc:	39 3d 5a 54 00 00    	cmp    %edi,0x545a(%rip)        # 40751c <vlevel>
  4020c2:	75 32                	jne    4020f6 <validate+0x46>
  4020c4:	8b 15 4e 54 00 00    	mov    0x544e(%rip),%edx        # 407518 <check_level>
  4020ca:	39 fa                	cmp    %edi,%edx
  4020cc:	75 3e                	jne    40210c <validate+0x5c>
  4020ce:	0f be 15 73 60 00 00 	movsbl 0x6073(%rip),%edx        # 408148 <target_prefix>
  4020d5:	4c 8d 05 64 54 00 00 	lea    0x5464(%rip),%r8        # 407540 <gets_buf>
  4020dc:	89 f9                	mov    %edi,%ecx
  4020de:	48 8d 35 53 23 00 00 	lea    0x2353(%rip),%rsi        # 404438 <_IO_stdin_used+0x438>
  4020e5:	bf 01 00 00 00       	mov    $0x1,%edi
  4020ea:	b8 00 00 00 00       	mov    $0x0,%eax
  4020ef:	e8 7c f0 ff ff       	callq  401170 <__printf_chk@plt>
  4020f4:	5b                   	pop    %rbx
  4020f5:	c3                   	retq   
  4020f6:	48 8d 3d 1d 23 00 00 	lea    0x231d(%rip),%rdi        # 40441a <_IO_stdin_used+0x41a>
  4020fd:	e8 7e ef ff ff       	callq  401080 <puts@plt>
  402102:	b8 00 00 00 00       	mov    $0x0,%eax
  402107:	e8 27 fd ff ff       	callq  401e33 <check_fail>
  40210c:	89 f9                	mov    %edi,%ecx
  40210e:	48 8d 35 43 24 00 00 	lea    0x2443(%rip),%rsi        # 404558 <_IO_stdin_used+0x558>
  402115:	bf 01 00 00 00       	mov    $0x1,%edi
  40211a:	b8 00 00 00 00       	mov    $0x0,%eax
  40211f:	e8 4c f0 ff ff       	callq  401170 <__printf_chk@plt>
  402124:	b8 00 00 00 00       	mov    $0x0,%eax
  402129:	e8 05 fd ff ff       	callq  401e33 <check_fail>
  40212e:	39 3d e8 53 00 00    	cmp    %edi,0x53e8(%rip)        # 40751c <vlevel>
  402134:	74 1a                	je     402150 <validate+0xa0>
  402136:	48 8d 3d dd 22 00 00 	lea    0x22dd(%rip),%rdi        # 40441a <_IO_stdin_used+0x41a>
  40213d:	e8 3e ef ff ff       	callq  401080 <puts@plt>
  402142:	89 de                	mov    %ebx,%esi
  402144:	bf 00 00 00 00       	mov    $0x0,%edi
  402149:	e8 6f fd ff ff       	callq  401ebd <notify_server>
  40214e:	eb a4                	jmp    4020f4 <validate+0x44>
  402150:	0f be 0d f1 5f 00 00 	movsbl 0x5ff1(%rip),%ecx        # 408148 <target_prefix>
  402157:	89 fa                	mov    %edi,%edx
  402159:	48 8d 35 20 24 00 00 	lea    0x2420(%rip),%rsi        # 404580 <_IO_stdin_used+0x580>
  402160:	bf 01 00 00 00       	mov    $0x1,%edi
  402165:	b8 00 00 00 00       	mov    $0x0,%eax
  40216a:	e8 01 f0 ff ff       	callq  401170 <__printf_chk@plt>
  40216f:	89 de                	mov    %ebx,%esi
  402171:	bf 01 00 00 00       	mov    $0x1,%edi
  402176:	e8 42 fd ff ff       	callq  401ebd <notify_server>
  40217b:	e9 74 ff ff ff       	jmpq   4020f4 <validate+0x44>

0000000000402180 <fail>:
  402180:	48 83 ec 08          	sub    $0x8,%rsp
  402184:	83 3d 9d 53 00 00 00 	cmpl   $0x0,0x539d(%rip)        # 407528 <is_checker>
  40218b:	75 11                	jne    40219e <fail+0x1e>
  40218d:	89 fe                	mov    %edi,%esi
  40218f:	bf 00 00 00 00       	mov    $0x0,%edi
  402194:	e8 24 fd ff ff       	callq  401ebd <notify_server>
  402199:	48 83 c4 08          	add    $0x8,%rsp
  40219d:	c3                   	retq   
  40219e:	b8 00 00 00 00       	mov    $0x0,%eax
  4021a3:	e8 8b fc ff ff       	callq  401e33 <check_fail>

00000000004021a8 <bushandler>:
  4021a8:	48 83 ec 08          	sub    $0x8,%rsp
  4021ac:	83 3d 75 53 00 00 00 	cmpl   $0x0,0x5375(%rip)        # 407528 <is_checker>
  4021b3:	74 16                	je     4021cb <bushandler+0x23>
  4021b5:	48 8d 3d 91 22 00 00 	lea    0x2291(%rip),%rdi        # 40444d <_IO_stdin_used+0x44d>
  4021bc:	e8 bf ee ff ff       	callq  401080 <puts@plt>
  4021c1:	b8 00 00 00 00       	mov    $0x0,%eax
  4021c6:	e8 68 fc ff ff       	callq  401e33 <check_fail>
  4021cb:	48 8d 3d e6 23 00 00 	lea    0x23e6(%rip),%rdi        # 4045b8 <_IO_stdin_used+0x5b8>
  4021d2:	e8 a9 ee ff ff       	callq  401080 <puts@plt>
  4021d7:	48 8d 3d 79 22 00 00 	lea    0x2279(%rip),%rdi        # 404457 <_IO_stdin_used+0x457>
  4021de:	e8 9d ee ff ff       	callq  401080 <puts@plt>
  4021e3:	be 00 00 00 00       	mov    $0x0,%esi
  4021e8:	bf 00 00 00 00       	mov    $0x0,%edi
  4021ed:	e8 cb fc ff ff       	callq  401ebd <notify_server>
  4021f2:	bf 01 00 00 00       	mov    $0x1,%edi
  4021f7:	e8 c4 ef ff ff       	callq  4011c0 <exit@plt>

00000000004021fc <seghandler>:
  4021fc:	48 83 ec 08          	sub    $0x8,%rsp
  402200:	83 3d 21 53 00 00 00 	cmpl   $0x0,0x5321(%rip)        # 407528 <is_checker>
  402207:	74 16                	je     40221f <seghandler+0x23>
  402209:	48 8d 3d 5d 22 00 00 	lea    0x225d(%rip),%rdi        # 40446d <_IO_stdin_used+0x46d>
  402210:	e8 6b ee ff ff       	callq  401080 <puts@plt>
  402215:	b8 00 00 00 00       	mov    $0x0,%eax
  40221a:	e8 14 fc ff ff       	callq  401e33 <check_fail>
  40221f:	48 8d 3d b2 23 00 00 	lea    0x23b2(%rip),%rdi        # 4045d8 <_IO_stdin_used+0x5d8>
  402226:	e8 55 ee ff ff       	callq  401080 <puts@plt>
  40222b:	48 8d 3d 25 22 00 00 	lea    0x2225(%rip),%rdi        # 404457 <_IO_stdin_used+0x457>
  402232:	e8 49 ee ff ff       	callq  401080 <puts@plt>
  402237:	be 00 00 00 00       	mov    $0x0,%esi
  40223c:	bf 00 00 00 00       	mov    $0x0,%edi
  402241:	e8 77 fc ff ff       	callq  401ebd <notify_server>
  402246:	bf 01 00 00 00       	mov    $0x1,%edi
  40224b:	e8 70 ef ff ff       	callq  4011c0 <exit@plt>

0000000000402250 <illegalhandler>:
  402250:	48 83 ec 08          	sub    $0x8,%rsp
  402254:	83 3d cd 52 00 00 00 	cmpl   $0x0,0x52cd(%rip)        # 407528 <is_checker>
  40225b:	74 16                	je     402273 <illegalhandler+0x23>
  40225d:	48 8d 3d 1c 22 00 00 	lea    0x221c(%rip),%rdi        # 404480 <_IO_stdin_used+0x480>
  402264:	e8 17 ee ff ff       	callq  401080 <puts@plt>
  402269:	b8 00 00 00 00       	mov    $0x0,%eax
  40226e:	e8 c0 fb ff ff       	callq  401e33 <check_fail>
  402273:	48 8d 3d 86 23 00 00 	lea    0x2386(%rip),%rdi        # 404600 <_IO_stdin_used+0x600>
  40227a:	e8 01 ee ff ff       	callq  401080 <puts@plt>
  40227f:	48 8d 3d d1 21 00 00 	lea    0x21d1(%rip),%rdi        # 404457 <_IO_stdin_used+0x457>
  402286:	e8 f5 ed ff ff       	callq  401080 <puts@plt>
  40228b:	be 00 00 00 00       	mov    $0x0,%esi
  402290:	bf 00 00 00 00       	mov    $0x0,%edi
  402295:	e8 23 fc ff ff       	callq  401ebd <notify_server>
  40229a:	bf 01 00 00 00       	mov    $0x1,%edi
  40229f:	e8 1c ef ff ff       	callq  4011c0 <exit@plt>

00000000004022a4 <sigalrmhandler>:
  4022a4:	48 83 ec 08          	sub    $0x8,%rsp
  4022a8:	83 3d 79 52 00 00 00 	cmpl   $0x0,0x5279(%rip)        # 407528 <is_checker>
  4022af:	74 16                	je     4022c7 <sigalrmhandler+0x23>
  4022b1:	48 8d 3d dc 21 00 00 	lea    0x21dc(%rip),%rdi        # 404494 <_IO_stdin_used+0x494>
  4022b8:	e8 c3 ed ff ff       	callq  401080 <puts@plt>
  4022bd:	b8 00 00 00 00       	mov    $0x0,%eax
  4022c2:	e8 6c fb ff ff       	callq  401e33 <check_fail>
  4022c7:	ba 05 00 00 00       	mov    $0x5,%edx
  4022cc:	48 8d 35 5d 23 00 00 	lea    0x235d(%rip),%rsi        # 404630 <_IO_stdin_used+0x630>
  4022d3:	bf 01 00 00 00       	mov    $0x1,%edi
  4022d8:	b8 00 00 00 00       	mov    $0x0,%eax
  4022dd:	e8 8e ee ff ff       	callq  401170 <__printf_chk@plt>
  4022e2:	be 00 00 00 00       	mov    $0x0,%esi
  4022e7:	bf 00 00 00 00       	mov    $0x0,%edi
  4022ec:	e8 cc fb ff ff       	callq  401ebd <notify_server>
  4022f1:	bf 01 00 00 00       	mov    $0x1,%edi
  4022f6:	e8 c5 ee ff ff       	callq  4011c0 <exit@plt>

00000000004022fb <launch>:
  4022fb:	55                   	push   %rbp
  4022fc:	48 89 e5             	mov    %rsp,%rbp
  4022ff:	48 89 fa             	mov    %rdi,%rdx
  402302:	48 8d 47 1e          	lea    0x1e(%rdi),%rax
  402306:	48 83 e0 f0          	and    $0xfffffffffffffff0,%rax
  40230a:	48 29 c4             	sub    %rax,%rsp
  40230d:	48 8d 7c 24 0f       	lea    0xf(%rsp),%rdi
  402312:	48 83 e7 f0          	and    $0xfffffffffffffff0,%rdi
  402316:	be f4 00 00 00       	mov    $0xf4,%esi
  40231b:	e8 90 ed ff ff       	callq  4010b0 <memset@plt>
  402320:	48 8b 05 79 51 00 00 	mov    0x5179(%rip),%rax        # 4074a0 <stdin@@GLIBC_2.2.5>
  402327:	48 39 05 e2 51 00 00 	cmp    %rax,0x51e2(%rip)        # 407510 <infile>
  40232e:	74 2b                	je     40235b <launch+0x60>
  402330:	c7 05 e2 51 00 00 00 	movl   $0x0,0x51e2(%rip)        # 40751c <vlevel>
  402337:	00 00 00 
  40233a:	b8 00 00 00 00       	mov    $0x0,%eax
  40233f:	e8 2f f9 ff ff       	callq  401c73 <test>
  402344:	83 3d dd 51 00 00 00 	cmpl   $0x0,0x51dd(%rip)        # 407528 <is_checker>
  40234b:	75 26                	jne    402373 <launch+0x78>
  40234d:	48 8d 3d 60 21 00 00 	lea    0x2160(%rip),%rdi        # 4044b4 <_IO_stdin_used+0x4b4>
  402354:	e8 27 ed ff ff       	callq  401080 <puts@plt>
  402359:	c9                   	leaveq 
  40235a:	c3                   	retq   
  40235b:	48 8d 35 3a 21 00 00 	lea    0x213a(%rip),%rsi        # 40449c <_IO_stdin_used+0x49c>
  402362:	bf 01 00 00 00       	mov    $0x1,%edi
  402367:	b8 00 00 00 00       	mov    $0x0,%eax
  40236c:	e8 ff ed ff ff       	callq  401170 <__printf_chk@plt>
  402371:	eb bd                	jmp    402330 <launch+0x35>
  402373:	48 8d 3d 2f 21 00 00 	lea    0x212f(%rip),%rdi        # 4044a9 <_IO_stdin_used+0x4a9>
  40237a:	e8 01 ed ff ff       	callq  401080 <puts@plt>
  40237f:	b8 00 00 00 00       	mov    $0x0,%eax
  402384:	e8 aa fa ff ff       	callq  401e33 <check_fail>

0000000000402389 <stable_launch>:
  402389:	53                   	push   %rbx
  40238a:	48 89 3d 77 51 00 00 	mov    %rdi,0x5177(%rip)        # 407508 <global_offset>
  402391:	41 b9 00 00 00 00    	mov    $0x0,%r9d
  402397:	41 b8 00 00 00 00    	mov    $0x0,%r8d
  40239d:	b9 32 01 00 00       	mov    $0x132,%ecx
  4023a2:	ba 07 00 00 00       	mov    $0x7,%edx
  4023a7:	be 00 00 10 00       	mov    $0x100000,%esi
  4023ac:	bf 00 60 58 55       	mov    $0x55586000,%edi
  4023b1:	e8 ea ec ff ff       	callq  4010a0 <mmap@plt>
  4023b6:	48 89 c3             	mov    %rax,%rbx
  4023b9:	48 3d 00 60 58 55    	cmp    $0x55586000,%rax
  4023bf:	75 43                	jne    402404 <stable_launch+0x7b>
  4023c1:	48 8d 90 f8 ff 0f 00 	lea    0xffff8(%rax),%rdx
  4023c8:	48 89 15 81 5d 00 00 	mov    %rdx,0x5d81(%rip)        # 408150 <stack_top>
  4023cf:	48 89 e0             	mov    %rsp,%rax
  4023d2:	48 89 d4             	mov    %rdx,%rsp
  4023d5:	48 89 c2             	mov    %rax,%rdx
  4023d8:	48 89 15 21 51 00 00 	mov    %rdx,0x5121(%rip)        # 407500 <global_save_stack>
  4023df:	48 8b 3d 22 51 00 00 	mov    0x5122(%rip),%rdi        # 407508 <global_offset>
  4023e6:	e8 10 ff ff ff       	callq  4022fb <launch>
  4023eb:	48 8b 05 0e 51 00 00 	mov    0x510e(%rip),%rax        # 407500 <global_save_stack>
  4023f2:	48 89 c4             	mov    %rax,%rsp
  4023f5:	be 00 00 10 00       	mov    $0x100000,%esi
  4023fa:	48 89 df             	mov    %rbx,%rdi
  4023fd:	e8 5e ed ff ff       	callq  401160 <munmap@plt>
  402402:	5b                   	pop    %rbx
  402403:	c3                   	retq   
  402404:	be 00 00 10 00       	mov    $0x100000,%esi
  402409:	48 89 c7             	mov    %rax,%rdi
  40240c:	e8 4f ed ff ff       	callq  401160 <munmap@plt>
  402411:	b9 00 60 58 55       	mov    $0x55586000,%ecx
  402416:	48 8d 15 4b 22 00 00 	lea    0x224b(%rip),%rdx        # 404668 <_IO_stdin_used+0x668>
  40241d:	be 01 00 00 00       	mov    $0x1,%esi
  402422:	48 8b 3d b7 50 00 00 	mov    0x50b7(%rip),%rdi        # 4074e0 <stderr@@GLIBC_2.2.5>
  402429:	b8 00 00 00 00       	mov    $0x0,%eax
  40242e:	e8 ad ed ff ff       	callq  4011e0 <__fprintf_chk@plt>
  402433:	bf 01 00 00 00       	mov    $0x1,%edi
  402438:	e8 83 ed ff ff       	callq  4011c0 <exit@plt>

000000000040243d <rio_readinitb>:
  40243d:	89 37                	mov    %esi,(%rdi)
  40243f:	c7 47 04 00 00 00 00 	movl   $0x0,0x4(%rdi)
  402446:	48 8d 47 10          	lea    0x10(%rdi),%rax
  40244a:	48 89 47 08          	mov    %rax,0x8(%rdi)
  40244e:	c3                   	retq   

000000000040244f <sigalrm_handler>:
  40244f:	48 83 ec 08          	sub    $0x8,%rsp
  402453:	b9 00 00 00 00       	mov    $0x0,%ecx
  402458:	48 8d 15 41 22 00 00 	lea    0x2241(%rip),%rdx        # 4046a0 <trans_char+0x10>
  40245f:	be 01 00 00 00       	mov    $0x1,%esi
  402464:	48 8b 3d 75 50 00 00 	mov    0x5075(%rip),%rdi        # 4074e0 <stderr@@GLIBC_2.2.5>
  40246b:	b8 00 00 00 00       	mov    $0x0,%eax
  402470:	e8 6b ed ff ff       	callq  4011e0 <__fprintf_chk@plt>
  402475:	bf 01 00 00 00       	mov    $0x1,%edi
  40247a:	e8 41 ed ff ff       	callq  4011c0 <exit@plt>

000000000040247f <rio_writen>:
  40247f:	41 55                	push   %r13
  402481:	41 54                	push   %r12
  402483:	55                   	push   %rbp
  402484:	53                   	push   %rbx
  402485:	48 83 ec 08          	sub    $0x8,%rsp
  402489:	41 89 fc             	mov    %edi,%r12d
  40248c:	48 89 f5             	mov    %rsi,%rbp
  40248f:	49 89 d5             	mov    %rdx,%r13
  402492:	48 89 d3             	mov    %rdx,%rbx
  402495:	eb 06                	jmp    40249d <rio_writen+0x1e>
  402497:	48 29 c3             	sub    %rax,%rbx
  40249a:	48 01 c5             	add    %rax,%rbp
  40249d:	48 85 db             	test   %rbx,%rbx
  4024a0:	74 24                	je     4024c6 <rio_writen+0x47>
  4024a2:	48 89 da             	mov    %rbx,%rdx
  4024a5:	48 89 ee             	mov    %rbp,%rsi
  4024a8:	44 89 e7             	mov    %r12d,%edi
  4024ab:	e8 e0 eb ff ff       	callq  401090 <write@plt>
  4024b0:	48 85 c0             	test   %rax,%rax
  4024b3:	7f e2                	jg     402497 <rio_writen+0x18>
  4024b5:	e8 76 eb ff ff       	callq  401030 <__errno_location@plt>
  4024ba:	83 38 04             	cmpl   $0x4,(%rax)
  4024bd:	75 15                	jne    4024d4 <rio_writen+0x55>
  4024bf:	b8 00 00 00 00       	mov    $0x0,%eax
  4024c4:	eb d1                	jmp    402497 <rio_writen+0x18>
  4024c6:	4c 89 e8             	mov    %r13,%rax
  4024c9:	48 83 c4 08          	add    $0x8,%rsp
  4024cd:	5b                   	pop    %rbx
  4024ce:	5d                   	pop    %rbp
  4024cf:	41 5c                	pop    %r12
  4024d1:	41 5d                	pop    %r13
  4024d3:	c3                   	retq   
  4024d4:	48 c7 c0 ff ff ff ff 	mov    $0xffffffffffffffff,%rax
  4024db:	eb ec                	jmp    4024c9 <rio_writen+0x4a>

00000000004024dd <rio_read>:
  4024dd:	41 55                	push   %r13
  4024df:	41 54                	push   %r12
  4024e1:	55                   	push   %rbp
  4024e2:	53                   	push   %rbx
  4024e3:	48 83 ec 08          	sub    $0x8,%rsp
  4024e7:	48 89 fb             	mov    %rdi,%rbx
  4024ea:	49 89 f5             	mov    %rsi,%r13
  4024ed:	49 89 d4             	mov    %rdx,%r12
  4024f0:	eb 0a                	jmp    4024fc <rio_read+0x1f>
  4024f2:	e8 39 eb ff ff       	callq  401030 <__errno_location@plt>
  4024f7:	83 38 04             	cmpl   $0x4,(%rax)
  4024fa:	75 63                	jne    40255f <rio_read+0x82>
  4024fc:	8b 6b 04             	mov    0x4(%rbx),%ebp
  4024ff:	85 ed                	test   %ebp,%ebp
  402501:	7f 2b                	jg     40252e <rio_read+0x51>
  402503:	48 8d 6b 10          	lea    0x10(%rbx),%rbp
  402507:	8b 3b                	mov    (%rbx),%edi
  402509:	48 c7 c1 ff ff ff ff 	mov    $0xffffffffffffffff,%rcx
  402510:	ba 00 20 00 00       	mov    $0x2000,%edx
  402515:	48 89 ee             	mov    %rbp,%rsi
  402518:	e8 53 eb ff ff       	callq  401070 <__read_chk@plt>
  40251d:	89 43 04             	mov    %eax,0x4(%rbx)
  402520:	85 c0                	test   %eax,%eax
  402522:	78 ce                	js     4024f2 <rio_read+0x15>
  402524:	85 c0                	test   %eax,%eax
  402526:	74 40                	je     402568 <rio_read+0x8b>
  402528:	48 89 6b 08          	mov    %rbp,0x8(%rbx)
  40252c:	eb ce                	jmp    4024fc <rio_read+0x1f>
  40252e:	89 e8                	mov    %ebp,%eax
  402530:	4c 39 e0             	cmp    %r12,%rax
  402533:	72 03                	jb     402538 <rio_read+0x5b>
  402535:	44 89 e5             	mov    %r12d,%ebp
  402538:	4c 63 e5             	movslq %ebp,%r12
  40253b:	48 8b 73 08          	mov    0x8(%rbx),%rsi
  40253f:	4c 89 e2             	mov    %r12,%rdx
  402542:	4c 89 ef             	mov    %r13,%rdi
  402545:	e8 d6 eb ff ff       	callq  401120 <memcpy@plt>
  40254a:	4c 01 63 08          	add    %r12,0x8(%rbx)
  40254e:	29 6b 04             	sub    %ebp,0x4(%rbx)
  402551:	4c 89 e0             	mov    %r12,%rax
  402554:	48 83 c4 08          	add    $0x8,%rsp
  402558:	5b                   	pop    %rbx
  402559:	5d                   	pop    %rbp
  40255a:	41 5c                	pop    %r12
  40255c:	41 5d                	pop    %r13
  40255e:	c3                   	retq   
  40255f:	48 c7 c0 ff ff ff ff 	mov    $0xffffffffffffffff,%rax
  402566:	eb ec                	jmp    402554 <rio_read+0x77>
  402568:	b8 00 00 00 00       	mov    $0x0,%eax
  40256d:	eb e5                	jmp    402554 <rio_read+0x77>

000000000040256f <rio_readlineb>:
  40256f:	41 55                	push   %r13
  402571:	41 54                	push   %r12
  402573:	55                   	push   %rbp
  402574:	53                   	push   %rbx
  402575:	48 83 ec 18          	sub    $0x18,%rsp
  402579:	49 89 fd             	mov    %rdi,%r13
  40257c:	48 89 f5             	mov    %rsi,%rbp
  40257f:	49 89 d4             	mov    %rdx,%r12
  402582:	bb 01 00 00 00       	mov    $0x1,%ebx
  402587:	4c 39 e3             	cmp    %r12,%rbx
  40258a:	73 47                	jae    4025d3 <rio_readlineb+0x64>
  40258c:	48 8d 74 24 0f       	lea    0xf(%rsp),%rsi
  402591:	ba 01 00 00 00       	mov    $0x1,%edx
  402596:	4c 89 ef             	mov    %r13,%rdi
  402599:	e8 3f ff ff ff       	callq  4024dd <rio_read>
  40259e:	83 f8 01             	cmp    $0x1,%eax
  4025a1:	75 1c                	jne    4025bf <rio_readlineb+0x50>
  4025a3:	48 8d 45 01          	lea    0x1(%rbp),%rax
  4025a7:	0f b6 54 24 0f       	movzbl 0xf(%rsp),%edx
  4025ac:	88 55 00             	mov    %dl,0x0(%rbp)
  4025af:	80 7c 24 0f 0a       	cmpb   $0xa,0xf(%rsp)
  4025b4:	74 1a                	je     4025d0 <rio_readlineb+0x61>
  4025b6:	48 83 c3 01          	add    $0x1,%rbx
  4025ba:	48 89 c5             	mov    %rax,%rbp
  4025bd:	eb c8                	jmp    402587 <rio_readlineb+0x18>
  4025bf:	85 c0                	test   %eax,%eax
  4025c1:	75 22                	jne    4025e5 <rio_readlineb+0x76>
  4025c3:	48 83 fb 01          	cmp    $0x1,%rbx
  4025c7:	75 0a                	jne    4025d3 <rio_readlineb+0x64>
  4025c9:	b8 00 00 00 00       	mov    $0x0,%eax
  4025ce:	eb 0a                	jmp    4025da <rio_readlineb+0x6b>
  4025d0:	48 89 c5             	mov    %rax,%rbp
  4025d3:	c6 45 00 00          	movb   $0x0,0x0(%rbp)
  4025d7:	48 89 d8             	mov    %rbx,%rax
  4025da:	48 83 c4 18          	add    $0x18,%rsp
  4025de:	5b                   	pop    %rbx
  4025df:	5d                   	pop    %rbp
  4025e0:	41 5c                	pop    %r12
  4025e2:	41 5d                	pop    %r13
  4025e4:	c3                   	retq   
  4025e5:	48 c7 c0 ff ff ff ff 	mov    $0xffffffffffffffff,%rax
  4025ec:	eb ec                	jmp    4025da <rio_readlineb+0x6b>

00000000004025ee <urlencode>:
  4025ee:	41 54                	push   %r12
  4025f0:	55                   	push   %rbp
  4025f1:	53                   	push   %rbx
  4025f2:	48 83 ec 10          	sub    $0x10,%rsp
  4025f6:	48 89 fb             	mov    %rdi,%rbx
  4025f9:	48 89 f5             	mov    %rsi,%rbp
  4025fc:	48 c7 c1 ff ff ff ff 	mov    $0xffffffffffffffff,%rcx
  402603:	b8 00 00 00 00       	mov    $0x0,%eax
  402608:	f2 ae                	repnz scas %es:(%rdi),%al
  40260a:	48 89 ce             	mov    %rcx,%rsi
  40260d:	48 f7 d6             	not    %rsi
  402610:	8d 46 ff             	lea    -0x1(%rsi),%eax
  402613:	eb 0f                	jmp    402624 <urlencode+0x36>
  402615:	44 88 45 00          	mov    %r8b,0x0(%rbp)
  402619:	48 8d 6d 01          	lea    0x1(%rbp),%rbp
  40261d:	48 83 c3 01          	add    $0x1,%rbx
  402621:	44 89 e0             	mov    %r12d,%eax
  402624:	44 8d 60 ff          	lea    -0x1(%rax),%r12d
  402628:	85 c0                	test   %eax,%eax
  40262a:	0f 84 ab 00 00 00    	je     4026db <urlencode+0xed>
  402630:	44 0f b6 03          	movzbl (%rbx),%r8d
  402634:	41 80 f8 2a          	cmp    $0x2a,%r8b
  402638:	0f 94 c2             	sete   %dl
  40263b:	41 80 f8 2d          	cmp    $0x2d,%r8b
  40263f:	0f 94 c0             	sete   %al
  402642:	08 c2                	or     %al,%dl
  402644:	75 cf                	jne    402615 <urlencode+0x27>
  402646:	41 80 f8 2e          	cmp    $0x2e,%r8b
  40264a:	74 c9                	je     402615 <urlencode+0x27>
  40264c:	41 80 f8 5f          	cmp    $0x5f,%r8b
  402650:	74 c3                	je     402615 <urlencode+0x27>
  402652:	41 8d 40 d0          	lea    -0x30(%r8),%eax
  402656:	3c 09                	cmp    $0x9,%al
  402658:	76 bb                	jbe    402615 <urlencode+0x27>
  40265a:	41 8d 40 bf          	lea    -0x41(%r8),%eax
  40265e:	3c 19                	cmp    $0x19,%al
  402660:	76 b3                	jbe    402615 <urlencode+0x27>
  402662:	41 8d 40 9f          	lea    -0x61(%r8),%eax
  402666:	3c 19                	cmp    $0x19,%al
  402668:	76 ab                	jbe    402615 <urlencode+0x27>
  40266a:	41 80 f8 20          	cmp    $0x20,%r8b
  40266e:	74 59                	je     4026c9 <urlencode+0xdb>
  402670:	41 8d 40 e0          	lea    -0x20(%r8),%eax
  402674:	3c 5f                	cmp    $0x5f,%al
  402676:	0f 96 c2             	setbe  %dl
  402679:	41 80 f8 09          	cmp    $0x9,%r8b
  40267d:	0f 94 c0             	sete   %al
  402680:	08 c2                	or     %al,%dl
  402682:	74 52                	je     4026d6 <urlencode+0xe8>
  402684:	48 8d 7c 24 08       	lea    0x8(%rsp),%rdi
  402689:	45 0f b6 c0          	movzbl %r8b,%r8d
  40268d:	48 8d 0d a1 20 00 00 	lea    0x20a1(%rip),%rcx        # 404735 <trans_char+0xa5>
  402694:	ba 08 00 00 00       	mov    $0x8,%edx
  402699:	be 01 00 00 00       	mov    $0x1,%esi
  40269e:	b8 00 00 00 00       	mov    $0x0,%eax
  4026a3:	e8 58 eb ff ff       	callq  401200 <__sprintf_chk@plt>
  4026a8:	0f b6 44 24 08       	movzbl 0x8(%rsp),%eax
  4026ad:	88 45 00             	mov    %al,0x0(%rbp)
  4026b0:	0f b6 44 24 09       	movzbl 0x9(%rsp),%eax
  4026b5:	88 45 01             	mov    %al,0x1(%rbp)
  4026b8:	0f b6 44 24 0a       	movzbl 0xa(%rsp),%eax
  4026bd:	88 45 02             	mov    %al,0x2(%rbp)
  4026c0:	48 8d 6d 03          	lea    0x3(%rbp),%rbp
  4026c4:	e9 54 ff ff ff       	jmpq   40261d <urlencode+0x2f>
  4026c9:	c6 45 00 2b          	movb   $0x2b,0x0(%rbp)
  4026cd:	48 8d 6d 01          	lea    0x1(%rbp),%rbp
  4026d1:	e9 47 ff ff ff       	jmpq   40261d <urlencode+0x2f>
  4026d6:	b8 ff ff ff ff       	mov    $0xffffffff,%eax
  4026db:	48 83 c4 10          	add    $0x10,%rsp
  4026df:	5b                   	pop    %rbx
  4026e0:	5d                   	pop    %rbp
  4026e1:	41 5c                	pop    %r12
  4026e3:	c3                   	retq   

00000000004026e4 <submitr>:
  4026e4:	41 57                	push   %r15
  4026e6:	41 56                	push   %r14
  4026e8:	41 55                	push   %r13
  4026ea:	41 54                	push   %r12
  4026ec:	55                   	push   %rbp
  4026ed:	53                   	push   %rbx
  4026ee:	48 81 ec 58 a0 00 00 	sub    $0xa058,%rsp
  4026f5:	49 89 fd             	mov    %rdi,%r13
  4026f8:	89 74 24 14          	mov    %esi,0x14(%rsp)
  4026fc:	49 89 d7             	mov    %rdx,%r15
  4026ff:	48 89 4c 24 08       	mov    %rcx,0x8(%rsp)
  402704:	4c 89 44 24 18       	mov    %r8,0x18(%rsp)
  402709:	4d 89 ce             	mov    %r9,%r14
  40270c:	48 8b ac 24 90 a0 00 	mov    0xa090(%rsp),%rbp
  402713:	00 
  402714:	c7 84 24 2c 20 00 00 	movl   $0x0,0x202c(%rsp)
  40271b:	00 00 00 00 
  40271f:	ba 00 00 00 00       	mov    $0x0,%edx
  402724:	be 01 00 00 00       	mov    $0x1,%esi
  402729:	bf 02 00 00 00       	mov    $0x2,%edi
  40272e:	e8 dd ea ff ff       	callq  401210 <socket@plt>
  402733:	85 c0                	test   %eax,%eax
  402735:	0f 88 ad 02 00 00    	js     4029e8 <submitr+0x304>
  40273b:	89 c3                	mov    %eax,%ebx
  40273d:	4c 89 ef             	mov    %r13,%rdi
  402740:	e8 ab e9 ff ff       	callq  4010f0 <gethostbyname@plt>
  402745:	48 85 c0             	test   %rax,%rax
  402748:	0f 84 e6 02 00 00    	je     402a34 <submitr+0x350>
  40274e:	4c 8d a4 24 40 a0 00 	lea    0xa040(%rsp),%r12
  402755:	00 
  402756:	48 c7 84 24 42 a0 00 	movq   $0x0,0xa042(%rsp)
  40275d:	00 00 00 00 00 
  402762:	c7 84 24 4a a0 00 00 	movl   $0x0,0xa04a(%rsp)
  402769:	00 00 00 00 
  40276d:	66 c7 84 24 4e a0 00 	movw   $0x0,0xa04e(%rsp)
  402774:	00 00 00 
  402777:	66 c7 84 24 40 a0 00 	movw   $0x2,0xa040(%rsp)
  40277e:	00 02 00 
  402781:	48 63 50 14          	movslq 0x14(%rax),%rdx
  402785:	48 8b 40 18          	mov    0x18(%rax),%rax
  402789:	48 8b 30             	mov    (%rax),%rsi
  40278c:	48 8d bc 24 44 a0 00 	lea    0xa044(%rsp),%rdi
  402793:	00 
  402794:	b9 0c 00 00 00       	mov    $0xc,%ecx
  402799:	e8 62 e9 ff ff       	callq  401100 <__memmove_chk@plt>
  40279e:	0f b7 44 24 14       	movzwl 0x14(%rsp),%eax
  4027a3:	66 c1 c0 08          	rol    $0x8,%ax
  4027a7:	66 89 84 24 42 a0 00 	mov    %ax,0xa042(%rsp)
  4027ae:	00 
  4027af:	ba 10 00 00 00       	mov    $0x10,%edx
  4027b4:	4c 89 e6             	mov    %r12,%rsi
  4027b7:	89 df                	mov    %ebx,%edi
  4027b9:	e8 12 ea ff ff       	callq  4011d0 <connect@plt>
  4027be:	85 c0                	test   %eax,%eax
  4027c0:	0f 88 d6 02 00 00    	js     402a9c <submitr+0x3b8>
  4027c6:	48 c7 c6 ff ff ff ff 	mov    $0xffffffffffffffff,%rsi
  4027cd:	b8 00 00 00 00       	mov    $0x0,%eax
  4027d2:	48 89 f1             	mov    %rsi,%rcx
  4027d5:	4c 89 f7             	mov    %r14,%rdi
  4027d8:	f2 ae                	repnz scas %es:(%rdi),%al
  4027da:	48 89 ca             	mov    %rcx,%rdx
  4027dd:	48 f7 d2             	not    %rdx
  4027e0:	48 89 f1             	mov    %rsi,%rcx
  4027e3:	4c 89 ff             	mov    %r15,%rdi
  4027e6:	f2 ae                	repnz scas %es:(%rdi),%al
  4027e8:	48 f7 d1             	not    %rcx
  4027eb:	49 89 c8             	mov    %rcx,%r8
  4027ee:	48 89 f1             	mov    %rsi,%rcx
  4027f1:	48 8b 7c 24 08       	mov    0x8(%rsp),%rdi
  4027f6:	f2 ae                	repnz scas %es:(%rdi),%al
  4027f8:	48 f7 d1             	not    %rcx
  4027fb:	4d 8d 44 08 fe       	lea    -0x2(%r8,%rcx,1),%r8
  402800:	48 89 f1             	mov    %rsi,%rcx
  402803:	48 8b 7c 24 18       	mov    0x18(%rsp),%rdi
  402808:	f2 ae                	repnz scas %es:(%rdi),%al
  40280a:	48 89 c8             	mov    %rcx,%rax
  40280d:	48 f7 d0             	not    %rax
  402810:	49 8d 4c 00 ff       	lea    -0x1(%r8,%rax,1),%rcx
  402815:	48 8d 44 52 fd       	lea    -0x3(%rdx,%rdx,2),%rax
  40281a:	48 8d 84 01 80 00 00 	lea    0x80(%rcx,%rax,1),%rax
  402821:	00 
  402822:	48 3d 00 20 00 00    	cmp    $0x2000,%rax
  402828:	0f 87 c8 02 00 00    	ja     402af6 <submitr+0x412>
  40282e:	48 8d b4 24 30 40 00 	lea    0x4030(%rsp),%rsi
  402835:	00 
  402836:	b9 00 04 00 00       	mov    $0x400,%ecx
  40283b:	b8 00 00 00 00       	mov    $0x0,%eax
  402840:	48 89 f7             	mov    %rsi,%rdi
  402843:	f3 48 ab             	rep stos %rax,%es:(%rdi)
  402846:	4c 89 f7             	mov    %r14,%rdi
  402849:	e8 a0 fd ff ff       	callq  4025ee <urlencode>
  40284e:	85 c0                	test   %eax,%eax
  402850:	0f 88 13 03 00 00    	js     402b69 <submitr+0x485>
  402856:	4c 8d a4 24 30 60 00 	lea    0x6030(%rsp),%r12
  40285d:	00 
  40285e:	41 55                	push   %r13
  402860:	48 8d 84 24 38 40 00 	lea    0x4038(%rsp),%rax
  402867:	00 
  402868:	50                   	push   %rax
  402869:	4d 89 f9             	mov    %r15,%r9
  40286c:	4c 8b 44 24 18       	mov    0x18(%rsp),%r8
  402871:	48 8d 0d 50 1e 00 00 	lea    0x1e50(%rip),%rcx        # 4046c8 <trans_char+0x38>
  402878:	ba 00 20 00 00       	mov    $0x2000,%edx
  40287d:	be 01 00 00 00       	mov    $0x1,%esi
  402882:	4c 89 e7             	mov    %r12,%rdi
  402885:	b8 00 00 00 00       	mov    $0x0,%eax
  40288a:	e8 71 e9 ff ff       	callq  401200 <__sprintf_chk@plt>
  40288f:	48 c7 c1 ff ff ff ff 	mov    $0xffffffffffffffff,%rcx
  402896:	b8 00 00 00 00       	mov    $0x0,%eax
  40289b:	4c 89 e7             	mov    %r12,%rdi
  40289e:	f2 ae                	repnz scas %es:(%rdi),%al
  4028a0:	48 89 ca             	mov    %rcx,%rdx
  4028a3:	48 f7 d2             	not    %rdx
  4028a6:	48 8d 52 ff          	lea    -0x1(%rdx),%rdx
  4028aa:	4c 89 e6             	mov    %r12,%rsi
  4028ad:	89 df                	mov    %ebx,%edi
  4028af:	e8 cb fb ff ff       	callq  40247f <rio_writen>
  4028b4:	48 83 c4 10          	add    $0x10,%rsp
  4028b8:	48 85 c0             	test   %rax,%rax
  4028bb:	0f 88 33 03 00 00    	js     402bf4 <submitr+0x510>
  4028c1:	4c 8d a4 24 30 80 00 	lea    0x8030(%rsp),%r12
  4028c8:	00 
  4028c9:	89 de                	mov    %ebx,%esi
  4028cb:	4c 89 e7             	mov    %r12,%rdi
  4028ce:	e8 6a fb ff ff       	callq  40243d <rio_readinitb>
  4028d3:	48 8d b4 24 30 60 00 	lea    0x6030(%rsp),%rsi
  4028da:	00 
  4028db:	ba 00 20 00 00       	mov    $0x2000,%edx
  4028e0:	4c 89 e7             	mov    %r12,%rdi
  4028e3:	e8 87 fc ff ff       	callq  40256f <rio_readlineb>
  4028e8:	48 85 c0             	test   %rax,%rax
  4028eb:	0f 8e 72 03 00 00    	jle    402c63 <submitr+0x57f>
  4028f1:	48 8d 8c 24 2c 20 00 	lea    0x202c(%rsp),%rcx
  4028f8:	00 
  4028f9:	48 8d 94 24 30 20 00 	lea    0x2030(%rsp),%rdx
  402900:	00 
  402901:	48 8d bc 24 30 60 00 	lea    0x6030(%rsp),%rdi
  402908:	00 
  402909:	4c 8d 44 24 20       	lea    0x20(%rsp),%r8
  40290e:	48 8d 35 27 1e 00 00 	lea    0x1e27(%rip),%rsi        # 40473c <trans_char+0xac>
  402915:	b8 00 00 00 00       	mov    $0x0,%eax
  40291a:	e8 31 e8 ff ff       	callq  401150 <__isoc99_sscanf@plt>
  40291f:	48 8d b4 24 30 60 00 	lea    0x6030(%rsp),%rsi
  402926:	00 
  402927:	b9 03 00 00 00       	mov    $0x3,%ecx
  40292c:	48 8d 3d 20 1e 00 00 	lea    0x1e20(%rip),%rdi        # 404753 <trans_char+0xc3>
  402933:	f3 a6                	repz cmpsb %es:(%rdi),%ds:(%rsi)
  402935:	0f 97 c0             	seta   %al
  402938:	1c 00                	sbb    $0x0,%al
  40293a:	84 c0                	test   %al,%al
  40293c:	0f 84 9f 03 00 00    	je     402ce1 <submitr+0x5fd>
  402942:	48 8d b4 24 30 60 00 	lea    0x6030(%rsp),%rsi
  402949:	00 
  40294a:	48 8d bc 24 30 80 00 	lea    0x8030(%rsp),%rdi
  402951:	00 
  402952:	ba 00 20 00 00       	mov    $0x2000,%edx
  402957:	e8 13 fc ff ff       	callq  40256f <rio_readlineb>
  40295c:	48 85 c0             	test   %rax,%rax
  40295f:	7f be                	jg     40291f <submitr+0x23b>
  402961:	48 b8 45 72 72 6f 72 	movabs $0x43203a726f727245,%rax
  402968:	3a 20 43 
  40296b:	48 ba 6c 69 65 6e 74 	movabs $0x6e7520746e65696c,%rdx
  402972:	20 75 6e 
  402975:	48 89 45 00          	mov    %rax,0x0(%rbp)
  402979:	48 89 55 08          	mov    %rdx,0x8(%rbp)
  40297d:	48 b8 61 62 6c 65 20 	movabs $0x206f7420656c6261,%rax
  402984:	74 6f 20 
  402987:	48 ba 72 65 61 64 20 	movabs $0x6165682064616572,%rdx
  40298e:	68 65 61 
  402991:	48 89 45 10          	mov    %rax,0x10(%rbp)
  402995:	48 89 55 18          	mov    %rdx,0x18(%rbp)
  402999:	48 b8 64 65 72 73 20 	movabs $0x6f72662073726564,%rax
  4029a0:	66 72 6f 
  4029a3:	48 ba 6d 20 74 68 65 	movabs $0x657220656874206d,%rdx
  4029aa:	20 72 65 
  4029ad:	48 89 45 20          	mov    %rax,0x20(%rbp)
  4029b1:	48 89 55 28          	mov    %rdx,0x28(%rbp)
  4029b5:	48 b8 73 75 6c 74 20 	movabs $0x72657320746c7573,%rax
  4029bc:	73 65 72 
  4029bf:	48 89 45 30          	mov    %rax,0x30(%rbp)
  4029c3:	c7 45 38 76 65 72 00 	movl   $0x726576,0x38(%rbp)
  4029ca:	89 df                	mov    %ebx,%edi
  4029cc:	e8 ff e6 ff ff       	callq  4010d0 <close@plt>
  4029d1:	b8 ff ff ff ff       	mov    $0xffffffff,%eax
  4029d6:	48 81 c4 58 a0 00 00 	add    $0xa058,%rsp
  4029dd:	5b                   	pop    %rbx
  4029de:	5d                   	pop    %rbp
  4029df:	41 5c                	pop    %r12
  4029e1:	41 5d                	pop    %r13
  4029e3:	41 5e                	pop    %r14
  4029e5:	41 5f                	pop    %r15
  4029e7:	c3                   	retq   
  4029e8:	48 b8 45 72 72 6f 72 	movabs $0x43203a726f727245,%rax
  4029ef:	3a 20 43 
  4029f2:	48 ba 6c 69 65 6e 74 	movabs $0x6e7520746e65696c,%rdx
  4029f9:	20 75 6e 
  4029fc:	48 89 45 00          	mov    %rax,0x0(%rbp)
  402a00:	48 89 55 08          	mov    %rdx,0x8(%rbp)
  402a04:	48 b8 61 62 6c 65 20 	movabs $0x206f7420656c6261,%rax
  402a0b:	74 6f 20 
  402a0e:	48 ba 63 72 65 61 74 	movabs $0x7320657461657263,%rdx
  402a15:	65 20 73 
  402a18:	48 89 45 10          	mov    %rax,0x10(%rbp)
  402a1c:	48 89 55 18          	mov    %rdx,0x18(%rbp)
  402a20:	c7 45 20 6f 63 6b 65 	movl   $0x656b636f,0x20(%rbp)
  402a27:	66 c7 45 24 74 00    	movw   $0x74,0x24(%rbp)
  402a2d:	b8 ff ff ff ff       	mov    $0xffffffff,%eax
  402a32:	eb a2                	jmp    4029d6 <submitr+0x2f2>
  402a34:	48 b8 45 72 72 6f 72 	movabs $0x44203a726f727245,%rax
  402a3b:	3a 20 44 
  402a3e:	48 ba 4e 53 20 69 73 	movabs $0x6e7520736920534e,%rdx
  402a45:	20 75 6e 
  402a48:	48 89 45 00          	mov    %rax,0x0(%rbp)
  402a4c:	48 89 55 08          	mov    %rdx,0x8(%rbp)
  402a50:	48 b8 61 62 6c 65 20 	movabs $0x206f7420656c6261,%rax
  402a57:	74 6f 20 
  402a5a:	48 ba 72 65 73 6f 6c 	movabs $0x2065766c6f736572,%rdx
  402a61:	76 65 20 
  402a64:	48 89 45 10          	mov    %rax,0x10(%rbp)
  402a68:	48 89 55 18          	mov    %rdx,0x18(%rbp)
  402a6c:	48 b8 73 65 72 76 65 	movabs $0x6120726576726573,%rax
  402a73:	72 20 61 
  402a76:	48 89 45 20          	mov    %rax,0x20(%rbp)
  402a7a:	c7 45 28 64 64 72 65 	movl   $0x65726464,0x28(%rbp)
  402a81:	66 c7 45 2c 73 73    	movw   $0x7373,0x2c(%rbp)
  402a87:	c6 45 2e 00          	movb   $0x0,0x2e(%rbp)
  402a8b:	89 df                	mov    %ebx,%edi
  402a8d:	e8 3e e6 ff ff       	callq  4010d0 <close@plt>
  402a92:	b8 ff ff ff ff       	mov    $0xffffffff,%eax
  402a97:	e9 3a ff ff ff       	jmpq   4029d6 <submitr+0x2f2>
  402a9c:	48 b8 45 72 72 6f 72 	movabs $0x55203a726f727245,%rax
  402aa3:	3a 20 55 
  402aa6:	48 ba 6e 61 62 6c 65 	movabs $0x6f7420656c62616e,%rdx
  402aad:	20 74 6f 
  402ab0:	48 89 45 00          	mov    %rax,0x0(%rbp)
  402ab4:	48 89 55 08          	mov    %rdx,0x8(%rbp)
  402ab8:	48 b8 20 63 6f 6e 6e 	movabs $0x7463656e6e6f6320,%rax
  402abf:	65 63 74 
  402ac2:	48 ba 20 74 6f 20 74 	movabs $0x20656874206f7420,%rdx
  402ac9:	68 65 20 
  402acc:	48 89 45 10          	mov    %rax,0x10(%rbp)
  402ad0:	48 89 55 18          	mov    %rdx,0x18(%rbp)
  402ad4:	c7 45 20 73 65 72 76 	movl   $0x76726573,0x20(%rbp)
  402adb:	66 c7 45 24 65 72    	movw   $0x7265,0x24(%rbp)
  402ae1:	c6 45 26 00          	movb   $0x0,0x26(%rbp)
  402ae5:	89 df                	mov    %ebx,%edi
  402ae7:	e8 e4 e5 ff ff       	callq  4010d0 <close@plt>
  402aec:	b8 ff ff ff ff       	mov    $0xffffffff,%eax
  402af1:	e9 e0 fe ff ff       	jmpq   4029d6 <submitr+0x2f2>
  402af6:	48 b8 45 72 72 6f 72 	movabs $0x52203a726f727245,%rax
  402afd:	3a 20 52 
  402b00:	48 ba 65 73 75 6c 74 	movabs $0x747320746c757365,%rdx
  402b07:	20 73 74 
  402b0a:	48 89 45 00          	mov    %rax,0x0(%rbp)
  402b0e:	48 89 55 08          	mov    %rdx,0x8(%rbp)
  402b12:	48 b8 72 69 6e 67 20 	movabs $0x6f6f7420676e6972,%rax
  402b19:	74 6f 6f 
  402b1c:	48 ba 20 6c 61 72 67 	movabs $0x202e656772616c20,%rdx
  402b23:	65 2e 20 
  402b26:	48 89 45 10          	mov    %rax,0x10(%rbp)
  402b2a:	48 89 55 18          	mov    %rdx,0x18(%rbp)
  402b2e:	48 b8 49 6e 63 72 65 	movabs $0x6573616572636e49,%rax
  402b35:	61 73 65 
  402b38:	48 ba 20 53 55 42 4d 	movabs $0x5254494d42555320,%rdx
  402b3f:	49 54 52 
  402b42:	48 89 45 20          	mov    %rax,0x20(%rbp)
  402b46:	48 89 55 28          	mov    %rdx,0x28(%rbp)
  402b4a:	48 b8 5f 4d 41 58 42 	movabs $0x46554258414d5f,%rax
  402b51:	55 46 00 
  402b54:	48 89 45 30          	mov    %rax,0x30(%rbp)
  402b58:	89 df                	mov    %ebx,%edi
  402b5a:	e8 71 e5 ff ff       	callq  4010d0 <close@plt>
  402b5f:	b8 ff ff ff ff       	mov    $0xffffffff,%eax
  402b64:	e9 6d fe ff ff       	jmpq   4029d6 <submitr+0x2f2>
  402b69:	48 b8 45 72 72 6f 72 	movabs $0x52203a726f727245,%rax
  402b70:	3a 20 52 
  402b73:	48 ba 65 73 75 6c 74 	movabs $0x747320746c757365,%rdx
  402b7a:	20 73 74 
  402b7d:	48 89 45 00          	mov    %rax,0x0(%rbp)
  402b81:	48 89 55 08          	mov    %rdx,0x8(%rbp)
  402b85:	48 b8 72 69 6e 67 20 	movabs $0x6e6f6320676e6972,%rax
  402b8c:	63 6f 6e 
  402b8f:	48 ba 74 61 69 6e 73 	movabs $0x6e6120736e696174,%rdx
  402b96:	20 61 6e 
  402b99:	48 89 45 10          	mov    %rax,0x10(%rbp)
  402b9d:	48 89 55 18          	mov    %rdx,0x18(%rbp)
  402ba1:	48 b8 20 69 6c 6c 65 	movabs $0x6c6167656c6c6920,%rax
  402ba8:	67 61 6c 
  402bab:	48 ba 20 6f 72 20 75 	movabs $0x72706e7520726f20,%rdx
  402bb2:	6e 70 72 
  402bb5:	48 89 45 20          	mov    %rax,0x20(%rbp)
  402bb9:	48 89 55 28          	mov    %rdx,0x28(%rbp)
  402bbd:	48 b8 69 6e 74 61 62 	movabs $0x20656c6261746e69,%rax
  402bc4:	6c 65 20 
  402bc7:	48 ba 63 68 61 72 61 	movabs $0x6574636172616863,%rdx
  402bce:	63 74 65 
  402bd1:	48 89 45 30          	mov    %rax,0x30(%rbp)
  402bd5:	48 89 55 38          	mov    %rdx,0x38(%rbp)
  402bd9:	66 c7 45 40 72 2e    	movw   $0x2e72,0x40(%rbp)
  402bdf:	c6 45 42 00          	movb   $0x0,0x42(%rbp)
  402be3:	89 df                	mov    %ebx,%edi
  402be5:	e8 e6 e4 ff ff       	callq  4010d0 <close@plt>
  402bea:	b8 ff ff ff ff       	mov    $0xffffffff,%eax
  402bef:	e9 e2 fd ff ff       	jmpq   4029d6 <submitr+0x2f2>
  402bf4:	48 b8 45 72 72 6f 72 	movabs $0x43203a726f727245,%rax
  402bfb:	3a 20 43 
  402bfe:	48 ba 6c 69 65 6e 74 	movabs $0x6e7520746e65696c,%rdx
  402c05:	20 75 6e 
  402c08:	48 89 45 00          	mov    %rax,0x0(%rbp)
  402c0c:	48 89 55 08          	mov    %rdx,0x8(%rbp)
  402c10:	48 b8 61 62 6c 65 20 	movabs $0x206f7420656c6261,%rax
  402c17:	74 6f 20 
  402c1a:	48 ba 77 72 69 74 65 	movabs $0x6f74206574697277,%rdx
  402c21:	20 74 6f 
  402c24:	48 89 45 10          	mov    %rax,0x10(%rbp)
  402c28:	48 89 55 18          	mov    %rdx,0x18(%rbp)
  402c2c:	48 b8 20 74 68 65 20 	movabs $0x7365722065687420,%rax
  402c33:	72 65 73 
  402c36:	48 ba 75 6c 74 20 73 	movabs $0x7672657320746c75,%rdx
  402c3d:	65 72 76 
  402c40:	48 89 45 20          	mov    %rax,0x20(%rbp)
  402c44:	48 89 55 28          	mov    %rdx,0x28(%rbp)
  402c48:	66 c7 45 30 65 72    	movw   $0x7265,0x30(%rbp)
  402c4e:	c6 45 32 00          	movb   $0x0,0x32(%rbp)
  402c52:	89 df                	mov    %ebx,%edi
  402c54:	e8 77 e4 ff ff       	callq  4010d0 <close@plt>
  402c59:	b8 ff ff ff ff       	mov    $0xffffffff,%eax
  402c5e:	e9 73 fd ff ff       	jmpq   4029d6 <submitr+0x2f2>
  402c63:	48 b8 45 72 72 6f 72 	movabs $0x43203a726f727245,%rax
  402c6a:	3a 20 43 
  402c6d:	48 ba 6c 69 65 6e 74 	movabs $0x6e7520746e65696c,%rdx
  402c74:	20 75 6e 
  402c77:	48 89 45 00          	mov    %rax,0x0(%rbp)
  402c7b:	48 89 55 08          	mov    %rdx,0x8(%rbp)
  402c7f:	48 b8 61 62 6c 65 20 	movabs $0x206f7420656c6261,%rax
  402c86:	74 6f 20 
  402c89:	48 ba 72 65 61 64 20 	movabs $0x7269662064616572,%rdx
  402c90:	66 69 72 
  402c93:	48 89 45 10          	mov    %rax,0x10(%rbp)
  402c97:	48 89 55 18          	mov    %rdx,0x18(%rbp)
  402c9b:	48 b8 73 74 20 68 65 	movabs $0x6564616568207473,%rax
  402ca2:	61 64 65 
  402ca5:	48 ba 72 20 66 72 6f 	movabs $0x72206d6f72662072,%rdx
  402cac:	6d 20 72 
  402caf:	48 89 45 20          	mov    %rax,0x20(%rbp)
  402cb3:	48 89 55 28          	mov    %rdx,0x28(%rbp)
  402cb7:	48 b8 65 73 75 6c 74 	movabs $0x657320746c757365,%rax
  402cbe:	20 73 65 
  402cc1:	48 89 45 30          	mov    %rax,0x30(%rbp)
  402cc5:	c7 45 38 72 76 65 72 	movl   $0x72657672,0x38(%rbp)
  402ccc:	c6 45 3c 00          	movb   $0x0,0x3c(%rbp)
  402cd0:	89 df                	mov    %ebx,%edi
  402cd2:	e8 f9 e3 ff ff       	callq  4010d0 <close@plt>
  402cd7:	b8 ff ff ff ff       	mov    $0xffffffff,%eax
  402cdc:	e9 f5 fc ff ff       	jmpq   4029d6 <submitr+0x2f2>
  402ce1:	48 8d b4 24 30 60 00 	lea    0x6030(%rsp),%rsi
  402ce8:	00 
  402ce9:	48 8d bc 24 30 80 00 	lea    0x8030(%rsp),%rdi
  402cf0:	00 
  402cf1:	ba 00 20 00 00       	mov    $0x2000,%edx
  402cf6:	e8 74 f8 ff ff       	callq  40256f <rio_readlineb>
  402cfb:	48 85 c0             	test   %rax,%rax
  402cfe:	0f 8e 99 00 00 00    	jle    402d9d <submitr+0x6b9>
  402d04:	44 8b 84 24 2c 20 00 	mov    0x202c(%rsp),%r8d
  402d0b:	00 
  402d0c:	41 81 f8 c8 00 00 00 	cmp    $0xc8,%r8d
  402d13:	0f 85 08 01 00 00    	jne    402e21 <submitr+0x73d>
  402d19:	48 8d b4 24 30 60 00 	lea    0x6030(%rsp),%rsi
  402d20:	00 
  402d21:	48 89 ef             	mov    %rbp,%rdi
  402d24:	e8 37 e3 ff ff       	callq  401060 <strcpy@plt>
  402d29:	89 df                	mov    %ebx,%edi
  402d2b:	e8 a0 e3 ff ff       	callq  4010d0 <close@plt>
  402d30:	b9 04 00 00 00       	mov    $0x4,%ecx
  402d35:	48 8d 3d 11 1a 00 00 	lea    0x1a11(%rip),%rdi        # 40474d <trans_char+0xbd>
  402d3c:	48 89 ee             	mov    %rbp,%rsi
  402d3f:	f3 a6                	repz cmpsb %es:(%rdi),%ds:(%rsi)
  402d41:	0f 97 c0             	seta   %al
  402d44:	1c 00                	sbb    $0x0,%al
  402d46:	0f be c0             	movsbl %al,%eax
  402d49:	85 c0                	test   %eax,%eax
  402d4b:	0f 84 85 fc ff ff    	je     4029d6 <submitr+0x2f2>
  402d51:	b9 05 00 00 00       	mov    $0x5,%ecx
  402d56:	48 8d 3d f4 19 00 00 	lea    0x19f4(%rip),%rdi        # 404751 <trans_char+0xc1>
  402d5d:	48 89 ee             	mov    %rbp,%rsi
  402d60:	f3 a6                	repz cmpsb %es:(%rdi),%ds:(%rsi)
  402d62:	0f 97 c0             	seta   %al
  402d65:	1c 00                	sbb    $0x0,%al
  402d67:	0f be c0             	movsbl %al,%eax
  402d6a:	85 c0                	test   %eax,%eax
  402d6c:	0f 84 64 fc ff ff    	je     4029d6 <submitr+0x2f2>
  402d72:	b9 03 00 00 00       	mov    $0x3,%ecx
  402d77:	48 8d 3d d8 19 00 00 	lea    0x19d8(%rip),%rdi        # 404756 <trans_char+0xc6>
  402d7e:	48 89 ee             	mov    %rbp,%rsi
  402d81:	f3 a6                	repz cmpsb %es:(%rdi),%ds:(%rsi)
  402d83:	0f 97 c0             	seta   %al
  402d86:	1c 00                	sbb    $0x0,%al
  402d88:	0f be c0             	movsbl %al,%eax
  402d8b:	85 c0                	test   %eax,%eax
  402d8d:	0f 84 43 fc ff ff    	je     4029d6 <submitr+0x2f2>
  402d93:	b8 ff ff ff ff       	mov    $0xffffffff,%eax
  402d98:	e9 39 fc ff ff       	jmpq   4029d6 <submitr+0x2f2>
  402d9d:	48 b8 45 72 72 6f 72 	movabs $0x43203a726f727245,%rax
  402da4:	3a 20 43 
  402da7:	48 ba 6c 69 65 6e 74 	movabs $0x6e7520746e65696c,%rdx
  402dae:	20 75 6e 
  402db1:	48 89 45 00          	mov    %rax,0x0(%rbp)
  402db5:	48 89 55 08          	mov    %rdx,0x8(%rbp)
  402db9:	48 b8 61 62 6c 65 20 	movabs $0x206f7420656c6261,%rax
  402dc0:	74 6f 20 
  402dc3:	48 ba 72 65 61 64 20 	movabs $0x6174732064616572,%rdx
  402dca:	73 74 61 
  402dcd:	48 89 45 10          	mov    %rax,0x10(%rbp)
  402dd1:	48 89 55 18          	mov    %rdx,0x18(%rbp)
  402dd5:	48 b8 74 75 73 20 6d 	movabs $0x7373656d20737574,%rax
  402ddc:	65 73 73 
  402ddf:	48 ba 61 67 65 20 66 	movabs $0x6d6f726620656761,%rdx
  402de6:	72 6f 6d 
  402de9:	48 89 45 20          	mov    %rax,0x20(%rbp)
  402ded:	48 89 55 28          	mov    %rdx,0x28(%rbp)
  402df1:	48 b8 20 72 65 73 75 	movabs $0x20746c7573657220,%rax
  402df8:	6c 74 20 
  402dfb:	48 89 45 30          	mov    %rax,0x30(%rbp)
  402dff:	c7 45 38 73 65 72 76 	movl   $0x76726573,0x38(%rbp)
  402e06:	66 c7 45 3c 65 72    	movw   $0x7265,0x3c(%rbp)
  402e0c:	c6 45 3e 00          	movb   $0x0,0x3e(%rbp)
  402e10:	89 df                	mov    %ebx,%edi
  402e12:	e8 b9 e2 ff ff       	callq  4010d0 <close@plt>
  402e17:	b8 ff ff ff ff       	mov    $0xffffffff,%eax
  402e1c:	e9 b5 fb ff ff       	jmpq   4029d6 <submitr+0x2f2>
  402e21:	4c 8d 4c 24 20       	lea    0x20(%rsp),%r9
  402e26:	48 8d 0d db 18 00 00 	lea    0x18db(%rip),%rcx        # 404708 <trans_char+0x78>
  402e2d:	48 c7 c2 ff ff ff ff 	mov    $0xffffffffffffffff,%rdx
  402e34:	be 01 00 00 00       	mov    $0x1,%esi
  402e39:	48 89 ef             	mov    %rbp,%rdi
  402e3c:	b8 00 00 00 00       	mov    $0x0,%eax
  402e41:	e8 ba e3 ff ff       	callq  401200 <__sprintf_chk@plt>
  402e46:	89 df                	mov    %ebx,%edi
  402e48:	e8 83 e2 ff ff       	callq  4010d0 <close@plt>
  402e4d:	b8 ff ff ff ff       	mov    $0xffffffff,%eax
  402e52:	e9 7f fb ff ff       	jmpq   4029d6 <submitr+0x2f2>

0000000000402e57 <init_timeout>:
  402e57:	85 ff                	test   %edi,%edi
  402e59:	74 28                	je     402e83 <init_timeout+0x2c>
  402e5b:	53                   	push   %rbx
  402e5c:	89 fb                	mov    %edi,%ebx
  402e5e:	85 ff                	test   %edi,%edi
  402e60:	78 1a                	js     402e7c <init_timeout+0x25>
  402e62:	48 8d 35 e6 f5 ff ff 	lea    -0xa1a(%rip),%rsi        # 40244f <sigalrm_handler>
  402e69:	bf 0e 00 00 00       	mov    $0xe,%edi
  402e6e:	e8 6d e2 ff ff       	callq  4010e0 <signal@plt>
  402e73:	89 df                	mov    %ebx,%edi
  402e75:	e8 46 e2 ff ff       	callq  4010c0 <alarm@plt>
  402e7a:	5b                   	pop    %rbx
  402e7b:	c3                   	retq   
  402e7c:	bb 00 00 00 00       	mov    $0x0,%ebx
  402e81:	eb df                	jmp    402e62 <init_timeout+0xb>
  402e83:	f3 c3                	repz retq 

0000000000402e85 <init_driver>:
  402e85:	41 54                	push   %r12
  402e87:	55                   	push   %rbp
  402e88:	53                   	push   %rbx
  402e89:	48 83 ec 10          	sub    $0x10,%rsp
  402e8d:	49 89 fc             	mov    %rdi,%r12
  402e90:	be 01 00 00 00       	mov    $0x1,%esi
  402e95:	bf 0d 00 00 00       	mov    $0xd,%edi
  402e9a:	e8 41 e2 ff ff       	callq  4010e0 <signal@plt>
  402e9f:	be 01 00 00 00       	mov    $0x1,%esi
  402ea4:	bf 1d 00 00 00       	mov    $0x1d,%edi
  402ea9:	e8 32 e2 ff ff       	callq  4010e0 <signal@plt>
  402eae:	be 01 00 00 00       	mov    $0x1,%esi
  402eb3:	bf 1d 00 00 00       	mov    $0x1d,%edi
  402eb8:	e8 23 e2 ff ff       	callq  4010e0 <signal@plt>
  402ebd:	ba 00 00 00 00       	mov    $0x0,%edx
  402ec2:	be 01 00 00 00       	mov    $0x1,%esi
  402ec7:	bf 02 00 00 00       	mov    $0x2,%edi
  402ecc:	e8 3f e3 ff ff       	callq  401210 <socket@plt>
  402ed1:	85 c0                	test   %eax,%eax
  402ed3:	0f 88 8f 00 00 00    	js     402f68 <init_driver+0xe3>
  402ed9:	89 c3                	mov    %eax,%ebx
  402edb:	48 8d 3d 77 18 00 00 	lea    0x1877(%rip),%rdi        # 404759 <trans_char+0xc9>
  402ee2:	e8 09 e2 ff ff       	callq  4010f0 <gethostbyname@plt>
  402ee7:	48 85 c0             	test   %rax,%rax
  402eea:	0f 84 cb 00 00 00    	je     402fbb <init_driver+0x136>
  402ef0:	48 89 e5             	mov    %rsp,%rbp
  402ef3:	48 c7 44 24 02 00 00 	movq   $0x0,0x2(%rsp)
  402efa:	00 00 
  402efc:	c7 45 0a 00 00 00 00 	movl   $0x0,0xa(%rbp)
  402f03:	66 c7 45 0e 00 00    	movw   $0x0,0xe(%rbp)
  402f09:	66 c7 04 24 02 00    	movw   $0x2,(%rsp)
  402f0f:	48 63 50 14          	movslq 0x14(%rax),%rdx
  402f13:	48 8b 40 18          	mov    0x18(%rax),%rax
  402f17:	48 8b 30             	mov    (%rax),%rsi
  402f1a:	48 8d 7d 04          	lea    0x4(%rbp),%rdi
  402f1e:	b9 0c 00 00 00       	mov    $0xc,%ecx
  402f23:	e8 d8 e1 ff ff       	callq  401100 <__memmove_chk@plt>
  402f28:	66 c7 44 24 02 3c 9a 	movw   $0x9a3c,0x2(%rsp)
  402f2f:	ba 10 00 00 00       	mov    $0x10,%edx
  402f34:	48 89 ee             	mov    %rbp,%rsi
  402f37:	89 df                	mov    %ebx,%edi
  402f39:	e8 92 e2 ff ff       	callq  4011d0 <connect@plt>
  402f3e:	85 c0                	test   %eax,%eax
  402f40:	0f 88 e7 00 00 00    	js     40302d <init_driver+0x1a8>
  402f46:	89 df                	mov    %ebx,%edi
  402f48:	e8 83 e1 ff ff       	callq  4010d0 <close@plt>
  402f4d:	66 41 c7 04 24 4f 4b 	movw   $0x4b4f,(%r12)
  402f54:	41 c6 44 24 02 00    	movb   $0x0,0x2(%r12)
  402f5a:	b8 00 00 00 00       	mov    $0x0,%eax
  402f5f:	48 83 c4 10          	add    $0x10,%rsp
  402f63:	5b                   	pop    %rbx
  402f64:	5d                   	pop    %rbp
  402f65:	41 5c                	pop    %r12
  402f67:	c3                   	retq   
  402f68:	48 b8 45 72 72 6f 72 	movabs $0x43203a726f727245,%rax
  402f6f:	3a 20 43 
  402f72:	48 ba 6c 69 65 6e 74 	movabs $0x6e7520746e65696c,%rdx
  402f79:	20 75 6e 
  402f7c:	49 89 04 24          	mov    %rax,(%r12)
  402f80:	49 89 54 24 08       	mov    %rdx,0x8(%r12)
  402f85:	48 b8 61 62 6c 65 20 	movabs $0x206f7420656c6261,%rax
  402f8c:	74 6f 20 
  402f8f:	48 ba 63 72 65 61 74 	movabs $0x7320657461657263,%rdx
  402f96:	65 20 73 
  402f99:	49 89 44 24 10       	mov    %rax,0x10(%r12)
  402f9e:	49 89 54 24 18       	mov    %rdx,0x18(%r12)
  402fa3:	41 c7 44 24 20 6f 63 	movl   $0x656b636f,0x20(%r12)
  402faa:	6b 65 
  402fac:	66 41 c7 44 24 24 74 	movw   $0x74,0x24(%r12)
  402fb3:	00 
  402fb4:	b8 ff ff ff ff       	mov    $0xffffffff,%eax
  402fb9:	eb a4                	jmp    402f5f <init_driver+0xda>
  402fbb:	48 b8 45 72 72 6f 72 	movabs $0x44203a726f727245,%rax
  402fc2:	3a 20 44 
  402fc5:	48 ba 4e 53 20 69 73 	movabs $0x6e7520736920534e,%rdx
  402fcc:	20 75 6e 
  402fcf:	49 89 04 24          	mov    %rax,(%r12)
  402fd3:	49 89 54 24 08       	mov    %rdx,0x8(%r12)
  402fd8:	48 b8 61 62 6c 65 20 	movabs $0x206f7420656c6261,%rax
  402fdf:	74 6f 20 
  402fe2:	48 ba 72 65 73 6f 6c 	movabs $0x2065766c6f736572,%rdx
  402fe9:	76 65 20 
  402fec:	49 89 44 24 10       	mov    %rax,0x10(%r12)
  402ff1:	49 89 54 24 18       	mov    %rdx,0x18(%r12)
  402ff6:	48 b8 73 65 72 76 65 	movabs $0x6120726576726573,%rax
  402ffd:	72 20 61 
  403000:	49 89 44 24 20       	mov    %rax,0x20(%r12)
  403005:	41 c7 44 24 28 64 64 	movl   $0x65726464,0x28(%r12)
  40300c:	72 65 
  40300e:	66 41 c7 44 24 2c 73 	movw   $0x7373,0x2c(%r12)
  403015:	73 
  403016:	41 c6 44 24 2e 00    	movb   $0x0,0x2e(%r12)
  40301c:	89 df                	mov    %ebx,%edi
  40301e:	e8 ad e0 ff ff       	callq  4010d0 <close@plt>
  403023:	b8 ff ff ff ff       	mov    $0xffffffff,%eax
  403028:	e9 32 ff ff ff       	jmpq   402f5f <init_driver+0xda>
  40302d:	48 b8 45 72 72 6f 72 	movabs $0x55203a726f727245,%rax
  403034:	3a 20 55 
  403037:	48 ba 6e 61 62 6c 65 	movabs $0x6f7420656c62616e,%rdx
  40303e:	20 74 6f 
  403041:	49 89 04 24          	mov    %rax,(%r12)
  403045:	49 89 54 24 08       	mov    %rdx,0x8(%r12)
  40304a:	48 b8 20 63 6f 6e 6e 	movabs $0x7463656e6e6f6320,%rax
  403051:	65 63 74 
  403054:	48 ba 20 74 6f 20 73 	movabs $0x76726573206f7420,%rdx
  40305b:	65 72 76 
  40305e:	49 89 44 24 10       	mov    %rax,0x10(%r12)
  403063:	49 89 54 24 18       	mov    %rdx,0x18(%r12)
  403068:	66 41 c7 44 24 20 65 	movw   $0x7265,0x20(%r12)
  40306f:	72 
  403070:	41 c6 44 24 22 00    	movb   $0x0,0x22(%r12)
  403076:	89 df                	mov    %ebx,%edi
  403078:	e8 53 e0 ff ff       	callq  4010d0 <close@plt>
  40307d:	b8 ff ff ff ff       	mov    $0xffffffff,%eax
  403082:	e9 d8 fe ff ff       	jmpq   402f5f <init_driver+0xda>

0000000000403087 <driver_post>:
  403087:	53                   	push   %rbx
  403088:	4c 89 cb             	mov    %r9,%rbx
  40308b:	45 85 c0             	test   %r8d,%r8d
  40308e:	75 18                	jne    4030a8 <driver_post+0x21>
  403090:	48 85 ff             	test   %rdi,%rdi
  403093:	74 05                	je     40309a <driver_post+0x13>
  403095:	80 3f 00             	cmpb   $0x0,(%rdi)
  403098:	75 37                	jne    4030d1 <driver_post+0x4a>
  40309a:	66 c7 03 4f 4b       	movw   $0x4b4f,(%rbx)
  40309f:	c6 43 02 00          	movb   $0x0,0x2(%rbx)
  4030a3:	44 89 c0             	mov    %r8d,%eax
  4030a6:	5b                   	pop    %rbx
  4030a7:	c3                   	retq   
  4030a8:	48 89 ca             	mov    %rcx,%rdx
  4030ab:	48 8d 35 b7 16 00 00 	lea    0x16b7(%rip),%rsi        # 404769 <trans_char+0xd9>
  4030b2:	bf 01 00 00 00       	mov    $0x1,%edi
  4030b7:	b8 00 00 00 00       	mov    $0x0,%eax
  4030bc:	e8 af e0 ff ff       	callq  401170 <__printf_chk@plt>
  4030c1:	66 c7 03 4f 4b       	movw   $0x4b4f,(%rbx)
  4030c6:	c6 43 02 00          	movb   $0x0,0x2(%rbx)
  4030ca:	b8 00 00 00 00       	mov    $0x0,%eax
  4030cf:	eb d5                	jmp    4030a6 <driver_post+0x1f>
  4030d1:	48 83 ec 08          	sub    $0x8,%rsp
  4030d5:	41 51                	push   %r9
  4030d7:	49 89 c9             	mov    %rcx,%r9
  4030da:	49 89 d0             	mov    %rdx,%r8
  4030dd:	48 89 f9             	mov    %rdi,%rcx
  4030e0:	48 89 f2             	mov    %rsi,%rdx
  4030e3:	be 9a 3c 00 00       	mov    $0x3c9a,%esi
  4030e8:	48 8d 3d 6a 16 00 00 	lea    0x166a(%rip),%rdi        # 404759 <trans_char+0xc9>
  4030ef:	e8 f0 f5 ff ff       	callq  4026e4 <submitr>
  4030f4:	48 83 c4 10          	add    $0x10,%rsp
  4030f8:	eb ac                	jmp    4030a6 <driver_post+0x1f>

00000000004030fa <check>:
  4030fa:	89 f8                	mov    %edi,%eax
  4030fc:	c1 e8 1c             	shr    $0x1c,%eax
  4030ff:	85 c0                	test   %eax,%eax
  403101:	74 1d                	je     403120 <check+0x26>
  403103:	b9 00 00 00 00       	mov    $0x0,%ecx
  403108:	83 f9 1f             	cmp    $0x1f,%ecx
  40310b:	7f 0d                	jg     40311a <check+0x20>
  40310d:	89 f8                	mov    %edi,%eax
  40310f:	d3 e8                	shr    %cl,%eax
  403111:	3c 0a                	cmp    $0xa,%al
  403113:	74 11                	je     403126 <check+0x2c>
  403115:	83 c1 08             	add    $0x8,%ecx
  403118:	eb ee                	jmp    403108 <check+0xe>
  40311a:	b8 01 00 00 00       	mov    $0x1,%eax
  40311f:	c3                   	retq   
  403120:	b8 00 00 00 00       	mov    $0x0,%eax
  403125:	c3                   	retq   
  403126:	b8 00 00 00 00       	mov    $0x0,%eax
  40312b:	c3                   	retq   

000000000040312c <gencookie>:
  40312c:	53                   	push   %rbx
  40312d:	83 c7 01             	add    $0x1,%edi
  403130:	e8 0b df ff ff       	callq  401040 <srandom@plt>
  403135:	e8 06 e0 ff ff       	callq  401140 <random@plt>
  40313a:	89 c3                	mov    %eax,%ebx
  40313c:	89 c7                	mov    %eax,%edi
  40313e:	e8 b7 ff ff ff       	callq  4030fa <check>
  403143:	85 c0                	test   %eax,%eax
  403145:	74 ee                	je     403135 <gencookie+0x9>
  403147:	89 d8                	mov    %ebx,%eax
  403149:	5b                   	pop    %rbx
  40314a:	c3                   	retq   

Disassembly of section .fini:

000000000040314c <_fini>:
  40314c:	f3 0f 1e fa          	endbr64 
  403150:	48 83 ec 08          	sub    $0x8,%rsp
  403154:	48 83 c4 08          	add    $0x8,%rsp
  403158:	c3                   	retq   
